	.file	"draw_vehicle.cpp"
	.text
	.type	_Py_IS_TYPE, @function
_Py_IS_TYPE:
.LFB247:
	.cfi_startproc
	pushq	%rbp
	.cfi_def_cfa_offset 16
	.cfi_offset 6, -16
	movq	%rsp, %rbp
	.cfi_def_cfa_register 6
	movq	%rdi, -8(%rbp)
	movq	%rsi, -16(%rbp)
	movq	-8(%rbp), %rax
	movq	8(%rax), %rax
	cmpq	%rax, -16(%rbp)
	sete	%al
	movzbl	%al, %eax
	popq	%rbp
	.cfi_def_cfa 7, 8
	ret
	.cfi_endproc
.LFE247:
	.size	_Py_IS_TYPE, .-_Py_IS_TYPE
	.type	_Py_DECREF, @function
_Py_DECREF:
.LFB253:
	.cfi_startproc
	pushq	%rbp
	.cfi_def_cfa_offset 16
	.cfi_offset 6, -16
	movq	%rsp, %rbp
	.cfi_def_cfa_register 6
	subq	$16, %rsp
	movq	%rdi, -8(%rbp)
	movq	-8(%rbp), %rax
	movq	(%rax), %rax
	leaq	-1(%rax), %rdx
	movq	-8(%rbp), %rax
	movq	%rdx, (%rax)
	movq	-8(%rbp), %rax
	movq	(%rax), %rax
	testq	%rax, %rax
	setne	%al
	testb	%al, %al
	jne	.L5
	movq	-8(%rbp), %rax
	movq	%rax, %rdi
	call	_Py_Dealloc@PLT
.L5:
	nop
	leave
	.cfi_def_cfa 7, 8
	ret
	.cfi_endproc
.LFE253:
	.size	_Py_DECREF, .-_Py_DECREF
	.section	.rodata
	.type	_ZStL19piecewise_construct, @object
	.size	_ZStL19piecewise_construct, 1
_ZStL19piecewise_construct:
	.zero	1
	.section	.text._ZnwmPv,"axG",@progbits,_ZnwmPv,comdat
	.weak	_ZnwmPv
	.type	_ZnwmPv, @function
_ZnwmPv:
.LFB637:
	.cfi_startproc
	endbr64
	pushq	%rbp
	.cfi_def_cfa_offset 16
	.cfi_offset 6, -16
	movq	%rsp, %rbp
	.cfi_def_cfa_register 6
	movq	%rdi, -8(%rbp)
	movq	%rsi, -16(%rbp)
	movq	-16(%rbp), %rax
	popq	%rbp
	.cfi_def_cfa 7, 8
	ret
	.cfi_endproc
.LFE637:
	.size	_ZnwmPv, .-_ZnwmPv
	.section	.text._ZdlPvS_,"axG",@progbits,_ZdlPvS_,comdat
	.weak	_ZdlPvS_
	.type	_ZdlPvS_, @function
_ZdlPvS_:
.LFB639:
	.cfi_startproc
	endbr64
	pushq	%rbp
	.cfi_def_cfa_offset 16
	.cfi_offset 6, -16
	movq	%rsp, %rbp
	.cfi_def_cfa_register 6
	movq	%rdi, -8(%rbp)
	movq	%rsi, -16(%rbp)
	nop
	popq	%rbp
	.cfi_def_cfa 7, 8
	ret
	.cfi_endproc
.LFE639:
	.size	_ZdlPvS_, .-_ZdlPvS_
	.section	.text._ZNSt15_Rb_tree_headerC2Ev,"axG",@progbits,_ZNSt15_Rb_tree_headerC5Ev,comdat
	.align 2
	.weak	_ZNSt15_Rb_tree_headerC2Ev
	.type	_ZNSt15_Rb_tree_headerC2Ev, @function
_ZNSt15_Rb_tree_headerC2Ev:
.LFB1254:
	.cfi_startproc
	endbr64
	pushq	%rbp
	.cfi_def_cfa_offset 16
	.cfi_offset 6, -16
	movq	%rsp, %rbp
	.cfi_def_cfa_register 6
	subq	$16, %rsp
	movq	%rdi, -8(%rbp)
	movq	-8(%rbp), %rax
	movl	$0, (%rax)
	movq	-8(%rbp), %rax
	movq	%rax, %rdi
	call	_ZNSt15_Rb_tree_header8_M_resetEv
	nop
	leave
	.cfi_def_cfa 7, 8
	ret
	.cfi_endproc
.LFE1254:
	.size	_ZNSt15_Rb_tree_headerC2Ev, .-_ZNSt15_Rb_tree_headerC2Ev
	.weak	_ZNSt15_Rb_tree_headerC1Ev
	.set	_ZNSt15_Rb_tree_headerC1Ev,_ZNSt15_Rb_tree_headerC2Ev
	.section	.text._ZNSt15_Rb_tree_header8_M_resetEv,"axG",@progbits,_ZNSt15_Rb_tree_header8_M_resetEv,comdat
	.align 2
	.weak	_ZNSt15_Rb_tree_header8_M_resetEv
	.type	_ZNSt15_Rb_tree_header8_M_resetEv, @function
_ZNSt15_Rb_tree_header8_M_resetEv:
.LFB1260:
	.cfi_startproc
	endbr64
	pushq	%rbp
	.cfi_def_cfa_offset 16
	.cfi_offset 6, -16
	movq	%rsp, %rbp
	.cfi_def_cfa_register 6
	movq	%rdi, -8(%rbp)
	movq	-8(%rbp), %rax
	movq	$0, 8(%rax)
	movq	-8(%rbp), %rdx
	movq	-8(%rbp), %rax
	movq	%rdx, 16(%rax)
	movq	-8(%rbp), %rdx
	movq	-8(%rbp), %rax
	movq	%rdx, 24(%rax)
	movq	-8(%rbp), %rax
	movq	$0, 32(%rax)
	nop
	popq	%rbp
	.cfi_def_cfa 7, 8
	ret
	.cfi_endproc
.LFE1260:
	.size	_ZNSt15_Rb_tree_header8_M_resetEv, .-_ZNSt15_Rb_tree_header8_M_resetEv
	.section	.rodata
	.type	_ZStL13allocator_arg, @object
	.size	_ZStL13allocator_arg, 1
_ZStL13allocator_arg:
	.zero	1
	.type	_ZStL6ignore, @object
	.size	_ZStL6ignore, 1
_ZStL6ignore:
	.zero	1
	.local	_ZStL8__ioinit
	.comm	_ZStL8__ioinit,1,1
	.local	_ZL11PyArray_API
	.comm	_ZL11PyArray_API,8,8
.LC0:
	.string	"numpy.core._multiarray_umath"
.LC1:
	.string	"_ARRAY_API"
.LC2:
	.string	"_ARRAY_API not found"
	.align 8
.LC3:
	.string	"_ARRAY_API is not PyCapsule object"
.LC4:
	.string	"_ARRAY_API is NULL pointer"
	.align 8
.LC5:
	.string	"module compiled against ABI version 0x%x but this version of numpy is 0x%x"
	.align 8
.LC6:
	.string	"module compiled against API version 0x%x but this version of numpy is 0x%x"
	.align 8
.LC7:
	.string	"FATAL: module compiled as unknown endian"
	.align 8
.LC8:
	.string	"FATAL: module compiled as little endian, but detected different endianness at runtime"
	.text
	.type	_import_array, @function
_import_array:
.LFB3158:
	.cfi_startproc
	endbr64
	pushq	%rbp
	.cfi_def_cfa_offset 16
	.cfi_offset 6, -16
	movq	%rsp, %rbp
	.cfi_def_cfa_register 6
	subq	$32, %rsp
	leaq	.LC0(%rip), %rax
	movq	%rax, %rdi
	call	PyImport_ImportModule@PLT
	movq	%rax, -16(%rbp)
	movq	$0, -8(%rbp)
	cmpq	$0, -16(%rbp)
	jne	.L12
	movl	$-1, %eax
	jmp	.L13
.L12:
	movq	-16(%rbp), %rax
	leaq	.LC1(%rip), %rdx
	movq	%rdx, %rsi
	movq	%rax, %rdi
	call	PyObject_GetAttrString@PLT
	movq	%rax, -8(%rbp)
	movq	-16(%rbp), %rax
	movq	%rax, %rdi
	call	_Py_DECREF
	cmpq	$0, -8(%rbp)
	jne	.L14
	movq	PyExc_AttributeError(%rip), %rax
	leaq	.LC2(%rip), %rdx
	movq	%rdx, %rsi
	movq	%rax, %rdi
	call	PyErr_SetString@PLT
	movl	$-1, %eax
	jmp	.L13
.L14:
	movq	-8(%rbp), %rax
	leaq	PyCapsule_Type(%rip), %rdx
	movq	%rdx, %rsi
	movq	%rax, %rdi
	call	_Py_IS_TYPE
	testl	%eax, %eax
	sete	%al
	testb	%al, %al
	je	.L15
	movq	PyExc_RuntimeError(%rip), %rax
	leaq	.LC3(%rip), %rdx
	movq	%rdx, %rsi
	movq	%rax, %rdi
	call	PyErr_SetString@PLT
	movq	-8(%rbp), %rax
	movq	%rax, %rdi
	call	_Py_DECREF
	movl	$-1, %eax
	jmp	.L13
.L15:
	movq	-8(%rbp), %rax
	movl	$0, %esi
	movq	%rax, %rdi
	call	PyCapsule_GetPointer@PLT
	movq	%rax, _ZL11PyArray_API(%rip)
	movq	-8(%rbp), %rax
	movq	%rax, %rdi
	call	_Py_DECREF
	movq	_ZL11PyArray_API(%rip), %rax
	testq	%rax, %rax
	jne	.L16
	movq	PyExc_RuntimeError(%rip), %rax
	leaq	.LC4(%rip), %rdx
	movq	%rdx, %rsi
	movq	%rax, %rdi
	call	PyErr_SetString@PLT
	movl	$-1, %eax
	jmp	.L13
.L16:
	movq	_ZL11PyArray_API(%rip), %rax
	movq	(%rax), %rax
	call	*%rax
	cmpl	$16777225, %eax
	setne	%al
	testb	%al, %al
	je	.L17
	movq	_ZL11PyArray_API(%rip), %rax
	movq	(%rax), %rax
	call	*%rax
	movl	%eax, %edx
	movq	PyExc_RuntimeError(%rip), %rax
	movl	%edx, %ecx
	movl	$16777225, %edx
	leaq	.LC5(%rip), %rsi
	movq	%rax, %rdi
	movl	$0, %eax
	call	PyErr_Format@PLT
	movl	$-1, %eax
	jmp	.L13
.L17:
	movq	_ZL11PyArray_API(%rip), %rax
	addq	$1688, %rax
	movq	(%rax), %rax
	call	*%rax
	cmpl	$13, %eax
	setbe	%al
	testb	%al, %al
	je	.L18
	movq	_ZL11PyArray_API(%rip), %rax
	addq	$1688, %rax
	movq	(%rax), %rax
	call	*%rax
	movl	%eax, %edx
	movq	PyExc_RuntimeError(%rip), %rax
	movl	%edx, %ecx
	movl	$14, %edx
	leaq	.LC6(%rip), %rsi
	movq	%rax, %rdi
	movl	$0, %eax
	call	PyErr_Format@PLT
	movl	$-1, %eax
	jmp	.L13
.L18:
	movq	_ZL11PyArray_API(%rip), %rax
	addq	$1680, %rax
	movq	(%rax), %rax
	call	*%rax
	movl	%eax, -20(%rbp)
	cmpl	$0, -20(%rbp)
	jne	.L19
	movq	PyExc_RuntimeError(%rip), %rax
	leaq	.LC7(%rip), %rdx
	movq	%rdx, %rsi
	movq	%rax, %rdi
	movl	$0, %eax
	call	PyErr_Format@PLT
	movl	$-1, %eax
	jmp	.L13
.L19:
	cmpl	$1, -20(%rbp)
	je	.L20
	movq	PyExc_RuntimeError(%rip), %rax
	leaq	.LC8(%rip), %rdx
	movq	%rdx, %rsi
	movq	%rax, %rdi
	movl	$0, %eax
	call	PyErr_Format@PLT
	movl	$-1, %eax
	jmp	.L13
.L20:
	movl	$0, %eax
.L13:
	leave
	.cfi_def_cfa 7, 8
	ret
	.cfi_endproc
.LFE3158:
	.size	_import_array, .-_import_array
	.local	_ZN13matplotlibcpp6detailL9s_backendE
	.comm	_ZN13matplotlibcpp6detailL9s_backendE,32,32
	.section	.text._ZN13matplotlibcpp6detail12_interpreter3getEv,"axG",@progbits,_ZN13matplotlibcpp6detail12_interpreter3getEv,comdat
	.weak	_ZN13matplotlibcpp6detail12_interpreter3getEv
	.type	_ZN13matplotlibcpp6detail12_interpreter3getEv, @function
_ZN13matplotlibcpp6detail12_interpreter3getEv:
.LFB3163:
	.cfi_startproc
	endbr64
	pushq	%rbp
	.cfi_def_cfa_offset 16
	.cfi_offset 6, -16
	movq	%rsp, %rbp
	.cfi_def_cfa_register 6
	movl	$0, %edi
	call	_ZN13matplotlibcpp6detail12_interpreter11interkeeperEb
	popq	%rbp
	.cfi_def_cfa 7, 8
	ret
	.cfi_endproc
.LFE3163:
	.size	_ZN13matplotlibcpp6detail12_interpreter3getEv, .-_ZN13matplotlibcpp6detail12_interpreter3getEv
	.weak	_ZZN13matplotlibcpp6detail12_interpreter11interkeeperEbE3ctx
	.section	.bss._ZZN13matplotlibcpp6detail12_interpreter11interkeeperEbE3ctx,"awG",@nobits,_ZZN13matplotlibcpp6detail12_interpreter11interkeeperEbE3ctx,comdat
	.align 32
	.type	_ZZN13matplotlibcpp6detail12_interpreter11interkeeperEbE3ctx, @gnu_unique_object
	.size	_ZZN13matplotlibcpp6detail12_interpreter11interkeeperEbE3ctx, 456
_ZZN13matplotlibcpp6detail12_interpreter11interkeeperEbE3ctx:
	.zero	456
	.weak	_ZGVZN13matplotlibcpp6detail12_interpreter11interkeeperEbE3ctx
	.section	.bss._ZGVZN13matplotlibcpp6detail12_interpreter11interkeeperEbE3ctx,"awG",@nobits,_ZGVZN13matplotlibcpp6detail12_interpreter11interkeeperEbE3ctx,comdat
	.align 8
	.type	_ZGVZN13matplotlibcpp6detail12_interpreter11interkeeperEbE3ctx, @gnu_unique_object
	.size	_ZGVZN13matplotlibcpp6detail12_interpreter11interkeeperEbE3ctx, 8
_ZGVZN13matplotlibcpp6detail12_interpreter11interkeeperEbE3ctx:
	.zero	8
	.section	.text._ZN13matplotlibcpp6detail12_interpreter11interkeeperEb,"axG",@progbits,_ZN13matplotlibcpp6detail12_interpreter11interkeeperEb,comdat
	.weak	_ZN13matplotlibcpp6detail12_interpreter11interkeeperEb
	.type	_ZN13matplotlibcpp6detail12_interpreter11interkeeperEb, @function
_ZN13matplotlibcpp6detail12_interpreter11interkeeperEb:
.LFB3165:
	.cfi_startproc
	.cfi_personality 0x9b,DW.ref.__gxx_personality_v0
	.cfi_lsda 0x1b,.LLSDA3165
	endbr64
	pushq	%rbp
	.cfi_def_cfa_offset 16
	.cfi_offset 6, -16
	movq	%rsp, %rbp
	.cfi_def_cfa_register 6
	pushq	%r12
	pushq	%rbx
	subq	$16, %rsp
	.cfi_offset 12, -24
	.cfi_offset 3, -32
	movl	%edi, %eax
	movb	%al, -20(%rbp)
	movzbl	_ZGVZN13matplotlibcpp6detail12_interpreter11interkeeperEbE3ctx(%rip), %eax
	testb	%al, %al
	sete	%al
	testb	%al, %al
	je	.L24
	leaq	_ZGVZN13matplotlibcpp6detail12_interpreter11interkeeperEbE3ctx(%rip), %rax
	movq	%rax, %rdi
	call	__cxa_guard_acquire@PLT
	testl	%eax, %eax
	setne	%al
	testb	%al, %al
	je	.L24
	movl	$0, %r12d
	leaq	_ZZN13matplotlibcpp6detail12_interpreter11interkeeperEbE3ctx(%rip), %rax
	movq	%rax, %rdi
.LEHB0:
	call	_ZN13matplotlibcpp6detail12_interpreterC1Ev
.LEHE0:
	leaq	__dso_handle(%rip), %rax
	movq	%rax, %rdx
	leaq	_ZZN13matplotlibcpp6detail12_interpreter11interkeeperEbE3ctx(%rip), %rax
	movq	%rax, %rsi
	leaq	_ZN13matplotlibcpp6detail12_interpreterD1Ev(%rip), %rax
	movq	%rax, %rdi
	call	__cxa_atexit@PLT
	leaq	_ZGVZN13matplotlibcpp6detail12_interpreter11interkeeperEbE3ctx(%rip), %rax
	movq	%rax, %rdi
	call	__cxa_guard_release@PLT
.L24:
	cmpb	$0, -20(%rbp)
	je	.L25
	leaq	_ZZN13matplotlibcpp6detail12_interpreter11interkeeperEbE3ctx(%rip), %rax
	movq	%rax, %rdi
	call	_ZN13matplotlibcpp6detail12_interpreterD1Ev
.L25:
	leaq	_ZZN13matplotlibcpp6detail12_interpreter11interkeeperEbE3ctx(%rip), %rax
	jmp	.L30
.L29:
	endbr64
	movq	%rax, %rbx
	testb	%r12b, %r12b
	jne	.L28
	leaq	_ZGVZN13matplotlibcpp6detail12_interpreter11interkeeperEbE3ctx(%rip), %rax
	movq	%rax, %rdi
	call	__cxa_guard_abort@PLT
.L28:
	movq	%rbx, %rax
	movq	%rax, %rdi
.LEHB1:
	call	_Unwind_Resume@PLT
.LEHE1:
.L30:
	addq	$16, %rsp
	popq	%rbx
	popq	%r12
	popq	%rbp
	.cfi_def_cfa 7, 8
	ret
	.cfi_endproc
.LFE3165:
	.globl	__gxx_personality_v0
	.section	.gcc_except_table._ZN13matplotlibcpp6detail12_interpreter11interkeeperEb,"aG",@progbits,_ZN13matplotlibcpp6detail12_interpreter11interkeeperEb,comdat
.LLSDA3165:
	.byte	0xff
	.byte	0xff
	.byte	0x1
	.uleb128 .LLSDACSE3165-.LLSDACSB3165
.LLSDACSB3165:
	.uleb128 .LEHB0-.LFB3165
	.uleb128 .LEHE0-.LEHB0
	.uleb128 .L29-.LFB3165
	.uleb128 0
	.uleb128 .LEHB1-.LFB3165
	.uleb128 .LEHE1-.LEHB1
	.uleb128 0
	.uleb128 0
.LLSDACSE3165:
	.section	.text._ZN13matplotlibcpp6detail12_interpreter11interkeeperEb,"axG",@progbits,_ZN13matplotlibcpp6detail12_interpreter11interkeeperEb,comdat
	.size	_ZN13matplotlibcpp6detail12_interpreter11interkeeperEb, .-_ZN13matplotlibcpp6detail12_interpreter11interkeeperEb
	.section	.rodata
	.align 8
.LC9:
	.string	"Couldn't find required function: "
	.align 8
.LC10:
	.string	" is unexpectedly not a PyFunction."
	.section	.text._ZN13matplotlibcpp6detail12_interpreter11safe_importEP7_objectNSt7__cxx1112basic_stringIcSt11char_traitsIcESaIcEEE,"axG",@progbits,_ZN13matplotlibcpp6detail12_interpreter11safe_importEP7_objectNSt7__cxx1112basic_stringIcSt11char_traitsIcESaIcEEE,comdat
	.align 2
	.weak	_ZN13matplotlibcpp6detail12_interpreter11safe_importEP7_objectNSt7__cxx1112basic_stringIcSt11char_traitsIcESaIcEEE
	.type	_ZN13matplotlibcpp6detail12_interpreter11safe_importEP7_objectNSt7__cxx1112basic_stringIcSt11char_traitsIcESaIcEEE, @function
_ZN13matplotlibcpp6detail12_interpreter11safe_importEP7_objectNSt7__cxx1112basic_stringIcSt11char_traitsIcESaIcEEE:
.LFB3166:
	.cfi_startproc
	.cfi_personality 0x9b,DW.ref.__gxx_personality_v0
	.cfi_lsda 0x1b,.LLSDA3166
	endbr64
	pushq	%rbp
	.cfi_def_cfa_offset 16
	.cfi_offset 6, -16
	movq	%rsp, %rbp
	.cfi_def_cfa_register 6
	pushq	%r12
	pushq	%rbx
	addq	$-128, %rsp
	.cfi_offset 12, -24
	.cfi_offset 3, -32
	movq	%rdi, -120(%rbp)
	movq	%rsi, -128(%rbp)
	movq	%rdx, -136(%rbp)
	movq	%fs:40, %rax
	movq	%rax, -24(%rbp)
	xorl	%eax, %eax
	movq	-136(%rbp), %rax
	movq	%rax, %rdi
	call	_ZNKSt7__cxx1112basic_stringIcSt11char_traitsIcESaIcEE5c_strEv@PLT
	movq	%rax, %rdx
	movq	-128(%rbp), %rax
	movq	%rdx, %rsi
	movq	%rax, %rdi
.LEHB2:
	call	PyObject_GetAttrString@PLT
.LEHE2:
	movq	%rax, -104(%rbp)
	cmpq	$0, -104(%rbp)
	jne	.L32
	movl	$16, %edi
	call	__cxa_allocate_exception@PLT
	movq	%rax, %rbx
	leaq	-105(%rbp), %rax
	movq	%rax, %rdi
	call	_ZNSaIcEC1Ev@PLT
	leaq	-105(%rbp), %rdx
	leaq	-96(%rbp), %rax
	leaq	.LC9(%rip), %rcx
	movq	%rcx, %rsi
	movq	%rax, %rdi
.LEHB3:
	call	_ZNSt7__cxx1112basic_stringIcSt11char_traitsIcESaIcEEC1EPKcRKS3_@PLT
.LEHE3:
	leaq	-64(%rbp), %rax
	movq	-136(%rbp), %rdx
	leaq	-96(%rbp), %rcx
	movq	%rcx, %rsi
	movq	%rax, %rdi
.LEHB4:
	call	_ZStplIcSt11char_traitsIcESaIcEENSt7__cxx1112basic_stringIT_T0_T1_EEOS8_RKS8_
.LEHE4:
	leaq	-64(%rbp), %rax
	movq	%rax, %rsi
	movq	%rbx, %rdi
.LEHB5:
	call	_ZNSt13runtime_errorC1ERKNSt7__cxx1112basic_stringIcSt11char_traitsIcESaIcEEE@PLT
.LEHE5:
	leaq	-64(%rbp), %rax
	movq	%rax, %rdi
	call	_ZNSt7__cxx1112basic_stringIcSt11char_traitsIcESaIcEED1Ev@PLT
	leaq	-96(%rbp), %rax
	movq	%rax, %rdi
	call	_ZNSt7__cxx1112basic_stringIcSt11char_traitsIcESaIcEED1Ev@PLT
	leaq	-105(%rbp), %rax
	movq	%rax, %rdi
	call	_ZNSaIcED1Ev@PLT
	movq	_ZNSt13runtime_errorD1Ev@GOTPCREL(%rip), %rax
	movq	%rax, %rdx
	leaq	_ZTISt13runtime_error(%rip), %rax
	movq	%rax, %rsi
	movq	%rbx, %rdi
.LEHB6:
	call	__cxa_throw@PLT
.LEHE6:
.L32:
	movq	-104(%rbp), %rax
	leaq	PyFunction_Type(%rip), %rdx
	movq	%rdx, %rsi
	movq	%rax, %rdi
	call	_Py_IS_TYPE
	testl	%eax, %eax
	sete	%al
	testb	%al, %al
	je	.L33
	movl	$16, %edi
	call	__cxa_allocate_exception@PLT
	movq	%rax, %rbx
	leaq	-105(%rbp), %rax
	movq	%rax, %rdi
	call	_ZNSaIcEC1Ev@PLT
	leaq	-105(%rbp), %rdx
	leaq	-96(%rbp), %rax
	leaq	.LC10(%rip), %rcx
	movq	%rcx, %rsi
	movq	%rax, %rdi
.LEHB7:
	call	_ZNSt7__cxx1112basic_stringIcSt11char_traitsIcESaIcEEC1EPKcRKS3_@PLT
.LEHE7:
	leaq	-64(%rbp), %rax
	leaq	-96(%rbp), %rdx
	movq	-136(%rbp), %rcx
	movq	%rcx, %rsi
	movq	%rax, %rdi
.LEHB8:
	call	_ZStplIcSt11char_traitsIcESaIcEENSt7__cxx1112basic_stringIT_T0_T1_EERKS8_OS8_
.LEHE8:
	leaq	-64(%rbp), %rax
	movq	%rax, %rsi
	movq	%rbx, %rdi
.LEHB9:
	call	_ZNSt13runtime_errorC1ERKNSt7__cxx1112basic_stringIcSt11char_traitsIcESaIcEEE@PLT
.LEHE9:
	leaq	-64(%rbp), %rax
	movq	%rax, %rdi
	call	_ZNSt7__cxx1112basic_stringIcSt11char_traitsIcESaIcEED1Ev@PLT
	leaq	-96(%rbp), %rax
	movq	%rax, %rdi
	call	_ZNSt7__cxx1112basic_stringIcSt11char_traitsIcESaIcEED1Ev@PLT
	leaq	-105(%rbp), %rax
	movq	%rax, %rdi
	call	_ZNSaIcED1Ev@PLT
	movq	_ZNSt13runtime_errorD1Ev@GOTPCREL(%rip), %rax
	movq	%rax, %rdx
	leaq	_ZTISt13runtime_error(%rip), %rax
	movq	%rax, %rsi
	movq	%rbx, %rdi
.LEHB10:
	call	__cxa_throw@PLT
.L33:
	movq	-104(%rbp), %rax
	movq	-24(%rbp), %rdx
	subq	%fs:40, %rdx
	je	.L41
	jmp	.L48
.L44:
	endbr64
	movq	%rax, %r12
	leaq	-64(%rbp), %rax
	movq	%rax, %rdi
	call	_ZNSt7__cxx1112basic_stringIcSt11char_traitsIcESaIcEED1Ev@PLT
	jmp	.L36
.L43:
	endbr64
	movq	%rax, %r12
.L36:
	leaq	-96(%rbp), %rax
	movq	%rax, %rdi
	call	_ZNSt7__cxx1112basic_stringIcSt11char_traitsIcESaIcEED1Ev@PLT
	jmp	.L37
.L42:
	endbr64
	movq	%rax, %r12
.L37:
	leaq	-105(%rbp), %rax
	movq	%rax, %rdi
	call	_ZNSaIcED1Ev@PLT
	movq	%rbx, %rdi
	call	__cxa_free_exception@PLT
	movq	%r12, %rax
	movq	%rax, %rdi
	call	_Unwind_Resume@PLT
.L47:
	endbr64
	movq	%rax, %r12
	leaq	-64(%rbp), %rax
	movq	%rax, %rdi
	call	_ZNSt7__cxx1112basic_stringIcSt11char_traitsIcESaIcEED1Ev@PLT
	jmp	.L39
.L46:
	endbr64
	movq	%rax, %r12
.L39:
	leaq	-96(%rbp), %rax
	movq	%rax, %rdi
	call	_ZNSt7__cxx1112basic_stringIcSt11char_traitsIcESaIcEED1Ev@PLT
	jmp	.L40
.L45:
	endbr64
	movq	%rax, %r12
.L40:
	leaq	-105(%rbp), %rax
	movq	%rax, %rdi
	call	_ZNSaIcED1Ev@PLT
	movq	%rbx, %rdi
	call	__cxa_free_exception@PLT
	movq	%r12, %rax
	movq	%rax, %rdi
	call	_Unwind_Resume@PLT
.LEHE10:
.L48:
	call	__stack_chk_fail@PLT
.L41:
	subq	$-128, %rsp
	popq	%rbx
	popq	%r12
	popq	%rbp
	.cfi_def_cfa 7, 8
	ret
	.cfi_endproc
.LFE3166:
	.section	.gcc_except_table._ZN13matplotlibcpp6detail12_interpreter11safe_importEP7_objectNSt7__cxx1112basic_stringIcSt11char_traitsIcESaIcEEE,"aG",@progbits,_ZN13matplotlibcpp6detail12_interpreter11safe_importEP7_objectNSt7__cxx1112basic_stringIcSt11char_traitsIcESaIcEEE,comdat
.LLSDA3166:
	.byte	0xff
	.byte	0xff
	.byte	0x1
	.uleb128 .LLSDACSE3166-.LLSDACSB3166
.LLSDACSB3166:
	.uleb128 .LEHB2-.LFB3166
	.uleb128 .LEHE2-.LEHB2
	.uleb128 0
	.uleb128 0
	.uleb128 .LEHB3-.LFB3166
	.uleb128 .LEHE3-.LEHB3
	.uleb128 .L42-.LFB3166
	.uleb128 0
	.uleb128 .LEHB4-.LFB3166
	.uleb128 .LEHE4-.LEHB4
	.uleb128 .L43-.LFB3166
	.uleb128 0
	.uleb128 .LEHB5-.LFB3166
	.uleb128 .LEHE5-.LEHB5
	.uleb128 .L44-.LFB3166
	.uleb128 0
	.uleb128 .LEHB6-.LFB3166
	.uleb128 .LEHE6-.LEHB6
	.uleb128 0
	.uleb128 0
	.uleb128 .LEHB7-.LFB3166
	.uleb128 .LEHE7-.LEHB7
	.uleb128 .L45-.LFB3166
	.uleb128 0
	.uleb128 .LEHB8-.LFB3166
	.uleb128 .LEHE8-.LEHB8
	.uleb128 .L46-.LFB3166
	.uleb128 0
	.uleb128 .LEHB9-.LFB3166
	.uleb128 .LEHE9-.LEHB9
	.uleb128 .L47-.LFB3166
	.uleb128 0
	.uleb128 .LEHB10-.LFB3166
	.uleb128 .LEHE10-.LEHB10
	.uleb128 0
	.uleb128 0
.LLSDACSE3166:
	.section	.text._ZN13matplotlibcpp6detail12_interpreter11safe_importEP7_objectNSt7__cxx1112basic_stringIcSt11char_traitsIcESaIcEEE,"axG",@progbits,_ZN13matplotlibcpp6detail12_interpreter11safe_importEP7_objectNSt7__cxx1112basic_stringIcSt11char_traitsIcESaIcEEE,comdat
	.size	_ZN13matplotlibcpp6detail12_interpreter11safe_importEP7_objectNSt7__cxx1112basic_stringIcSt11char_traitsIcESaIcEEE, .-_ZN13matplotlibcpp6detail12_interpreter11safe_importEP7_objectNSt7__cxx1112basic_stringIcSt11char_traitsIcESaIcEEE
	.section	.rodata
	.align 8
.LC11:
	.string	"numpy.core.multiarray failed to import"
	.section	.text._ZN13matplotlibcpp6detail12_interpreter12import_numpyEv,"axG",@progbits,_ZN13matplotlibcpp6detail12_interpreter12import_numpyEv,comdat
	.align 2
	.weak	_ZN13matplotlibcpp6detail12_interpreter12import_numpyEv
	.type	_ZN13matplotlibcpp6detail12_interpreter12import_numpyEv, @function
_ZN13matplotlibcpp6detail12_interpreter12import_numpyEv:
.LFB3167:
	.cfi_startproc
	endbr64
	pushq	%rbp
	.cfi_def_cfa_offset 16
	.cfi_offset 6, -16
	movq	%rsp, %rbp
	.cfi_def_cfa_register 6
	subq	$16, %rsp
	movq	%rdi, -8(%rbp)
	call	_import_array
	shrl	$31, %eax
	testb	%al, %al
	je	.L50
	call	PyErr_Print@PLT
	movq	PyExc_ImportError(%rip), %rax
	leaq	.LC11(%rip), %rdx
	movq	%rdx, %rsi
	movq	%rax, %rdi
	call	PyErr_SetString@PLT
	movl	$0, %eax
	jmp	.L51
.L50:
	movl	$0, %eax
.L51:
	leave
	.cfi_def_cfa 7, 8
	ret
	.cfi_endproc
.LFE3167:
	.size	_ZN13matplotlibcpp6detail12_interpreter12import_numpyEv, .-_ZN13matplotlibcpp6detail12_interpreter12import_numpyEv
	.section	.rodata
	.align 4
.LC12:
	.string	"P"
	.string	""
	.string	""
	.string	"y"
	.string	""
	.string	""
	.string	"t"
	.string	""
	.string	""
	.string	"h"
	.string	""
	.string	""
	.string	"o"
	.string	""
	.string	""
	.string	"n"
	.string	""
	.string	""
	.string	""
	.string	""
	.string	""
	.string	""
.LC13:
	.string	"matplotlib"
.LC14:
	.string	"matplotlib.pyplot"
.LC15:
	.string	"matplotlib.cm"
.LC16:
	.string	"pylab"
.LC17:
	.string	"couldnt create string"
	.align 8
.LC18:
	.string	"Error loading module matplotlib!"
.LC19:
	.string	"s"
.LC20:
	.string	"use"
	.align 8
.LC21:
	.string	"Error loading module matplotlib.pyplot!"
	.align 8
.LC22:
	.string	"Error loading module matplotlib.cm!"
.LC23:
	.string	"Error loading module pylab!"
.LC24:
	.string	"arrow"
.LC25:
	.string	"show"
.LC26:
	.string	"close"
.LC27:
	.string	"draw"
.LC28:
	.string	"pause"
.LC29:
	.string	"figure"
.LC30:
	.string	"fignum_exists"
.LC31:
	.string	"plot"
.LC32:
	.string	"quiver"
.LC33:
	.string	"contour"
.LC34:
	.string	"semilogx"
.LC35:
	.string	"semilogy"
.LC36:
	.string	"loglog"
.LC37:
	.string	"fill"
.LC38:
	.string	"fill_between"
.LC39:
	.string	"hist"
.LC40:
	.string	"scatter"
.LC41:
	.string	"boxplot"
.LC42:
	.string	"subplot"
.LC43:
	.string	"subplot2grid"
.LC44:
	.string	"legend"
.LC45:
	.string	"xlim"
.LC46:
	.string	"ylim"
.LC47:
	.string	"title"
.LC48:
	.string	"axis"
.LC49:
	.string	"axhline"
.LC50:
	.string	"axvline"
.LC51:
	.string	"axvspan"
.LC52:
	.string	"xlabel"
.LC53:
	.string	"ylabel"
.LC54:
	.string	"gca"
.LC55:
	.string	"xticks"
.LC56:
	.string	"yticks"
.LC57:
	.string	"margins"
.LC58:
	.string	"tick_params"
.LC59:
	.string	"grid"
.LC60:
	.string	"ion"
.LC61:
	.string	"ginput"
.LC62:
	.string	"savefig"
.LC63:
	.string	"annotate"
.LC64:
	.string	"cla"
.LC65:
	.string	"clf"
.LC66:
	.string	"errorbar"
.LC67:
	.string	"tight_layout"
.LC68:
	.string	"stem"
.LC69:
	.string	"xkcd"
.LC70:
	.string	"text"
.LC71:
	.string	"suptitle"
.LC72:
	.string	"bar"
.LC73:
	.string	"barh"
.LC74:
	.string	"colorbar"
.LC75:
	.string	"subplots_adjust"
.LC76:
	.string	"rcParams"
.LC77:
	.string	"spy"
.LC78:
	.string	"imshow"
	.section	.text._ZN13matplotlibcpp6detail12_interpreterC2Ev,"axG",@progbits,_ZN13matplotlibcpp6detail12_interpreterC5Ev,comdat
	.align 2
	.weak	_ZN13matplotlibcpp6detail12_interpreterC2Ev
	.type	_ZN13matplotlibcpp6detail12_interpreterC2Ev, @function
_ZN13matplotlibcpp6detail12_interpreterC2Ev:
.LFB3169:
	.cfi_startproc
	.cfi_personality 0x9b,DW.ref.__gxx_personality_v0
	.cfi_lsda 0x1b,.LLSDA3169
	endbr64
	pushq	%rbp
	.cfi_def_cfa_offset 16
	.cfi_offset 6, -16
	movq	%rsp, %rbp
	.cfi_def_cfa_register 6
	pushq	%r12
	pushq	%rbx
	subq	$192, %rsp
	.cfi_offset 12, -24
	.cfi_offset 3, -32
	movq	%rdi, -200(%rbp)
	movq	%fs:40, %rax
	movq	%rax, -24(%rbp)
	xorl	%eax, %eax
	movabsq	$463856468080, %rax
	movabsq	$498216206447, %rdx
	movq	%rax, -64(%rbp)
	movq	%rdx, -56(%rbp)
	movabsq	$450971566196, %rax
	movabsq	$442381631598, %rdx
	movq	%rax, -48(%rbp)
	movq	%rdx, -40(%rbp)
	movl	$0, -32(%rbp)
	leaq	-64(%rbp), %rax
	movq	%rax, %rdi
.LEHB11:
	call	Py_SetProgramName@PLT
	call	Py_Initialize@PLT
	leaq	.LC12(%rip), %rax
	movq	%rax, -112(%rbp)
	movq	$0, -104(%rbp)
	leaq	-112(%rbp), %rax
	movq	%rax, -176(%rbp)
	movl	$1, -180(%rbp)
	movq	-176(%rbp), %rdx
	movl	-180(%rbp), %eax
	movq	%rdx, %rsi
	movl	%eax, %edi
	call	PySys_SetArgv@PLT
	movq	-200(%rbp), %rax
	movq	%rax, %rdi
	call	_ZN13matplotlibcpp6detail12_interpreter12import_numpyEv
	leaq	.LC13(%rip), %rax
	movq	%rax, %rdi
	call	PyUnicode_FromString@PLT
	movq	%rax, -168(%rbp)
	leaq	.LC14(%rip), %rax
	movq	%rax, %rdi
	call	PyUnicode_FromString@PLT
	movq	%rax, -160(%rbp)
	leaq	.LC15(%rip), %rax
	movq	%rax, %rdi
	call	PyUnicode_FromString@PLT
	movq	%rax, -152(%rbp)
	leaq	.LC16(%rip), %rax
	movq	%rax, %rdi
	call	PyUnicode_FromString@PLT
.LEHE11:
	movq	%rax, -144(%rbp)
	cmpq	$0, -160(%rbp)
	je	.L53
	cmpq	$0, -144(%rbp)
	je	.L53
	cmpq	$0, -168(%rbp)
	je	.L53
	cmpq	$0, -152(%rbp)
	jne	.L54
.L53:
	movl	$16, %edi
	call	__cxa_allocate_exception@PLT
	movq	%rax, %rbx
	leaq	.LC17(%rip), %rax
	movq	%rax, %rsi
	movq	%rbx, %rdi
.LEHB12:
	call	_ZNSt13runtime_errorC1EPKc@PLT
.LEHE12:
	movq	_ZNSt13runtime_errorD1Ev@GOTPCREL(%rip), %rax
	movq	%rax, %rdx
	leaq	_ZTISt13runtime_error(%rip), %rax
	movq	%rax, %rsi
	movq	%rbx, %rdi
.LEHB13:
	call	__cxa_throw@PLT
.L54:
	movq	-168(%rbp), %rax
	movq	%rax, %rdi
	call	PyImport_Import@PLT
	movq	%rax, -136(%rbp)
	movq	-168(%rbp), %rax
	movq	%rax, %rdi
	call	_Py_DECREF
	cmpq	$0, -136(%rbp)
	jne	.L55
	call	PyErr_Print@PLT
.LEHE13:
	movl	$16, %edi
	call	__cxa_allocate_exception@PLT
	movq	%rax, %rbx
	leaq	.LC18(%rip), %rax
	movq	%rax, %rsi
	movq	%rbx, %rdi
.LEHB14:
	call	_ZNSt13runtime_errorC1EPKc@PLT
.LEHE14:
	movq	_ZNSt13runtime_errorD1Ev@GOTPCREL(%rip), %rax
	movq	%rax, %rdx
	leaq	_ZTISt13runtime_error(%rip), %rax
	movq	%rax, %rsi
	movq	%rbx, %rdi
.LEHB15:
	call	__cxa_throw@PLT
.L55:
	leaq	_ZN13matplotlibcpp6detailL9s_backendE(%rip), %rax
	movq	%rax, %rdi
	call	_ZNKSt7__cxx1112basic_stringIcSt11char_traitsIcESaIcEE5emptyEv@PLT
	xorl	$1, %eax
	testb	%al, %al
	je	.L56
	leaq	_ZN13matplotlibcpp6detailL9s_backendE(%rip), %rax
	movq	%rax, %rdi
	call	_ZNKSt7__cxx1112basic_stringIcSt11char_traitsIcESaIcEE5c_strEv@PLT
	movq	%rax, %rdx
	movq	-136(%rbp), %rax
	movq	%rdx, %rcx
	leaq	.LC19(%rip), %rdx
	leaq	.LC20(%rip), %rsi
	movq	%rax, %rdi
	movl	$0, %eax
	call	PyObject_CallMethod@PLT
.L56:
	movq	-160(%rbp), %rax
	movq	%rax, %rdi
	call	PyImport_Import@PLT
	movq	%rax, -128(%rbp)
	movq	-160(%rbp), %rax
	movq	%rax, %rdi
	call	_Py_DECREF
.LEHE15:
	cmpq	$0, -128(%rbp)
	jne	.L57
	movl	$16, %edi
	call	__cxa_allocate_exception@PLT
	movq	%rax, %rbx
	leaq	.LC21(%rip), %rax
	movq	%rax, %rsi
	movq	%rbx, %rdi
.LEHB16:
	call	_ZNSt13runtime_errorC1EPKc@PLT
.LEHE16:
	movq	_ZNSt13runtime_errorD1Ev@GOTPCREL(%rip), %rax
	movq	%rax, %rdx
	leaq	_ZTISt13runtime_error(%rip), %rax
	movq	%rax, %rsi
	movq	%rbx, %rdi
.LEHB17:
	call	__cxa_throw@PLT
.L57:
	movq	-152(%rbp), %rax
	movq	%rax, %rdi
	call	PyImport_Import@PLT
	movq	-200(%rbp), %rdx
	movq	%rax, 360(%rdx)
	movq	-152(%rbp), %rax
	movq	%rax, %rdi
	call	_Py_DECREF
.LEHE17:
	movq	-200(%rbp), %rax
	movq	360(%rax), %rax
	testq	%rax, %rax
	jne	.L58
	movl	$16, %edi
	call	__cxa_allocate_exception@PLT
	movq	%rax, %rbx
	leaq	.LC22(%rip), %rax
	movq	%rax, %rsi
	movq	%rbx, %rdi
.LEHB18:
	call	_ZNSt13runtime_errorC1EPKc@PLT
.LEHE18:
	movq	_ZNSt13runtime_errorD1Ev@GOTPCREL(%rip), %rax
	movq	%rax, %rdx
	leaq	_ZTISt13runtime_error(%rip), %rax
	movq	%rax, %rsi
	movq	%rbx, %rdi
.LEHB19:
	call	__cxa_throw@PLT
.L58:
	movq	-144(%rbp), %rax
	movq	%rax, %rdi
	call	PyImport_Import@PLT
	movq	%rax, -120(%rbp)
	movq	-144(%rbp), %rax
	movq	%rax, %rdi
	call	_Py_DECREF
.LEHE19:
	cmpq	$0, -120(%rbp)
	jne	.L59
	movl	$16, %edi
	call	__cxa_allocate_exception@PLT
	movq	%rax, %rbx
	leaq	.LC23(%rip), %rax
	movq	%rax, %rsi
	movq	%rbx, %rdi
.LEHB20:
	call	_ZNSt13runtime_errorC1EPKc@PLT
.LEHE20:
	movq	_ZNSt13runtime_errorD1Ev@GOTPCREL(%rip), %rax
	movq	%rax, %rdx
	leaq	_ZTISt13runtime_error(%rip), %rax
	movq	%rax, %rsi
	movq	%rbx, %rdi
.LEHB21:
	call	__cxa_throw@PLT
.LEHE21:
.L59:
	leaq	-181(%rbp), %rax
	movq	%rax, %rdi
	call	_ZNSaIcEC1Ev@PLT
	leaq	-181(%rbp), %rdx
	leaq	-96(%rbp), %rax
	leaq	.LC24(%rip), %rcx
	movq	%rcx, %rsi
	movq	%rax, %rdi
.LEHB22:
	call	_ZNSt7__cxx1112basic_stringIcSt11char_traitsIcESaIcEEC1EPKcRKS3_@PLT
.LEHE22:
	leaq	-96(%rbp), %rdx
	movq	-128(%rbp), %rcx
	movq	-200(%rbp), %rax
	movq	%rcx, %rsi
	movq	%rax, %rdi
.LEHB23:
	call	_ZN13matplotlibcpp6detail12_interpreter11safe_importEP7_objectNSt7__cxx1112basic_stringIcSt11char_traitsIcESaIcEEE
.LEHE23:
	movq	-200(%rbp), %rdx
	movq	%rax, (%rdx)
	leaq	-96(%rbp), %rax
	movq	%rax, %rdi
	call	_ZNSt7__cxx1112basic_stringIcSt11char_traitsIcESaIcEED1Ev@PLT
	leaq	-181(%rbp), %rax
	movq	%rax, %rdi
	call	_ZNSaIcED1Ev@PLT
	leaq	-181(%rbp), %rax
	movq	%rax, %rdi
	call	_ZNSaIcEC1Ev@PLT
	leaq	-181(%rbp), %rdx
	leaq	-96(%rbp), %rax
	leaq	.LC25(%rip), %rcx
	movq	%rcx, %rsi
	movq	%rax, %rdi
.LEHB24:
	call	_ZNSt7__cxx1112basic_stringIcSt11char_traitsIcESaIcEEC1EPKcRKS3_@PLT
.LEHE24:
	leaq	-96(%rbp), %rdx
	movq	-128(%rbp), %rcx
	movq	-200(%rbp), %rax
	movq	%rcx, %rsi
	movq	%rax, %rdi
.LEHB25:
	call	_ZN13matplotlibcpp6detail12_interpreter11safe_importEP7_objectNSt7__cxx1112basic_stringIcSt11char_traitsIcESaIcEEE
.LEHE25:
	movq	-200(%rbp), %rdx
	movq	%rax, 8(%rdx)
	leaq	-96(%rbp), %rax
	movq	%rax, %rdi
	call	_ZNSt7__cxx1112basic_stringIcSt11char_traitsIcESaIcEED1Ev@PLT
	leaq	-181(%rbp), %rax
	movq	%rax, %rdi
	call	_ZNSaIcED1Ev@PLT
	leaq	-181(%rbp), %rax
	movq	%rax, %rdi
	call	_ZNSaIcEC1Ev@PLT
	leaq	-181(%rbp), %rdx
	leaq	-96(%rbp), %rax
	leaq	.LC26(%rip), %rcx
	movq	%rcx, %rsi
	movq	%rax, %rdi
.LEHB26:
	call	_ZNSt7__cxx1112basic_stringIcSt11char_traitsIcESaIcEEC1EPKcRKS3_@PLT
.LEHE26:
	leaq	-96(%rbp), %rdx
	movq	-128(%rbp), %rcx
	movq	-200(%rbp), %rax
	movq	%rcx, %rsi
	movq	%rax, %rdi
.LEHB27:
	call	_ZN13matplotlibcpp6detail12_interpreter11safe_importEP7_objectNSt7__cxx1112basic_stringIcSt11char_traitsIcESaIcEEE
.LEHE27:
	movq	-200(%rbp), %rdx
	movq	%rax, 16(%rdx)
	leaq	-96(%rbp), %rax
	movq	%rax, %rdi
	call	_ZNSt7__cxx1112basic_stringIcSt11char_traitsIcESaIcEED1Ev@PLT
	leaq	-181(%rbp), %rax
	movq	%rax, %rdi
	call	_ZNSaIcED1Ev@PLT
	leaq	-181(%rbp), %rax
	movq	%rax, %rdi
	call	_ZNSaIcEC1Ev@PLT
	leaq	-181(%rbp), %rdx
	leaq	-96(%rbp), %rax
	leaq	.LC27(%rip), %rcx
	movq	%rcx, %rsi
	movq	%rax, %rdi
.LEHB28:
	call	_ZNSt7__cxx1112basic_stringIcSt11char_traitsIcESaIcEEC1EPKcRKS3_@PLT
.LEHE28:
	leaq	-96(%rbp), %rdx
	movq	-128(%rbp), %rcx
	movq	-200(%rbp), %rax
	movq	%rcx, %rsi
	movq	%rax, %rdi
.LEHB29:
	call	_ZN13matplotlibcpp6detail12_interpreter11safe_importEP7_objectNSt7__cxx1112basic_stringIcSt11char_traitsIcESaIcEEE
.LEHE29:
	movq	-200(%rbp), %rdx
	movq	%rax, 24(%rdx)
	leaq	-96(%rbp), %rax
	movq	%rax, %rdi
	call	_ZNSt7__cxx1112basic_stringIcSt11char_traitsIcESaIcEED1Ev@PLT
	leaq	-181(%rbp), %rax
	movq	%rax, %rdi
	call	_ZNSaIcED1Ev@PLT
	leaq	-181(%rbp), %rax
	movq	%rax, %rdi
	call	_ZNSaIcEC1Ev@PLT
	leaq	-181(%rbp), %rdx
	leaq	-96(%rbp), %rax
	leaq	.LC28(%rip), %rcx
	movq	%rcx, %rsi
	movq	%rax, %rdi
.LEHB30:
	call	_ZNSt7__cxx1112basic_stringIcSt11char_traitsIcESaIcEEC1EPKcRKS3_@PLT
.LEHE30:
	leaq	-96(%rbp), %rdx
	movq	-128(%rbp), %rcx
	movq	-200(%rbp), %rax
	movq	%rcx, %rsi
	movq	%rax, %rdi
.LEHB31:
	call	_ZN13matplotlibcpp6detail12_interpreter11safe_importEP7_objectNSt7__cxx1112basic_stringIcSt11char_traitsIcESaIcEEE
.LEHE31:
	movq	-200(%rbp), %rdx
	movq	%rax, 32(%rdx)
	leaq	-96(%rbp), %rax
	movq	%rax, %rdi
	call	_ZNSt7__cxx1112basic_stringIcSt11char_traitsIcESaIcEED1Ev@PLT
	leaq	-181(%rbp), %rax
	movq	%rax, %rdi
	call	_ZNSaIcED1Ev@PLT
	leaq	-181(%rbp), %rax
	movq	%rax, %rdi
	call	_ZNSaIcEC1Ev@PLT
	leaq	-181(%rbp), %rdx
	leaq	-96(%rbp), %rax
	leaq	.LC29(%rip), %rcx
	movq	%rcx, %rsi
	movq	%rax, %rdi
.LEHB32:
	call	_ZNSt7__cxx1112basic_stringIcSt11char_traitsIcESaIcEEC1EPKcRKS3_@PLT
.LEHE32:
	leaq	-96(%rbp), %rdx
	movq	-128(%rbp), %rcx
	movq	-200(%rbp), %rax
	movq	%rcx, %rsi
	movq	%rax, %rdi
.LEHB33:
	call	_ZN13matplotlibcpp6detail12_interpreter11safe_importEP7_objectNSt7__cxx1112basic_stringIcSt11char_traitsIcESaIcEEE
.LEHE33:
	movq	-200(%rbp), %rdx
	movq	%rax, 48(%rdx)
	leaq	-96(%rbp), %rax
	movq	%rax, %rdi
	call	_ZNSt7__cxx1112basic_stringIcSt11char_traitsIcESaIcEED1Ev@PLT
	leaq	-181(%rbp), %rax
	movq	%rax, %rdi
	call	_ZNSaIcED1Ev@PLT
	leaq	-181(%rbp), %rax
	movq	%rax, %rdi
	call	_ZNSaIcEC1Ev@PLT
	leaq	-181(%rbp), %rdx
	leaq	-96(%rbp), %rax
	leaq	.LC30(%rip), %rcx
	movq	%rcx, %rsi
	movq	%rax, %rdi
.LEHB34:
	call	_ZNSt7__cxx1112basic_stringIcSt11char_traitsIcESaIcEEC1EPKcRKS3_@PLT
.LEHE34:
	leaq	-96(%rbp), %rdx
	movq	-128(%rbp), %rcx
	movq	-200(%rbp), %rax
	movq	%rcx, %rsi
	movq	%rax, %rdi
.LEHB35:
	call	_ZN13matplotlibcpp6detail12_interpreter11safe_importEP7_objectNSt7__cxx1112basic_stringIcSt11char_traitsIcESaIcEEE
.LEHE35:
	movq	-200(%rbp), %rdx
	movq	%rax, 56(%rdx)
	leaq	-96(%rbp), %rax
	movq	%rax, %rdi
	call	_ZNSt7__cxx1112basic_stringIcSt11char_traitsIcESaIcEED1Ev@PLT
	leaq	-181(%rbp), %rax
	movq	%rax, %rdi
	call	_ZNSaIcED1Ev@PLT
	leaq	-181(%rbp), %rax
	movq	%rax, %rdi
	call	_ZNSaIcEC1Ev@PLT
	leaq	-181(%rbp), %rdx
	leaq	-96(%rbp), %rax
	leaq	.LC31(%rip), %rcx
	movq	%rcx, %rsi
	movq	%rax, %rdi
.LEHB36:
	call	_ZNSt7__cxx1112basic_stringIcSt11char_traitsIcESaIcEEC1EPKcRKS3_@PLT
.LEHE36:
	leaq	-96(%rbp), %rdx
	movq	-128(%rbp), %rcx
	movq	-200(%rbp), %rax
	movq	%rcx, %rsi
	movq	%rax, %rdi
.LEHB37:
	call	_ZN13matplotlibcpp6detail12_interpreter11safe_importEP7_objectNSt7__cxx1112basic_stringIcSt11char_traitsIcESaIcEEE
.LEHE37:
	movq	-200(%rbp), %rdx
	movq	%rax, 64(%rdx)
	leaq	-96(%rbp), %rax
	movq	%rax, %rdi
	call	_ZNSt7__cxx1112basic_stringIcSt11char_traitsIcESaIcEED1Ev@PLT
	leaq	-181(%rbp), %rax
	movq	%rax, %rdi
	call	_ZNSaIcED1Ev@PLT
	leaq	-181(%rbp), %rax
	movq	%rax, %rdi
	call	_ZNSaIcEC1Ev@PLT
	leaq	-181(%rbp), %rdx
	leaq	-96(%rbp), %rax
	leaq	.LC32(%rip), %rcx
	movq	%rcx, %rsi
	movq	%rax, %rdi
.LEHB38:
	call	_ZNSt7__cxx1112basic_stringIcSt11char_traitsIcESaIcEEC1EPKcRKS3_@PLT
.LEHE38:
	leaq	-96(%rbp), %rdx
	movq	-128(%rbp), %rcx
	movq	-200(%rbp), %rax
	movq	%rcx, %rsi
	movq	%rax, %rdi
.LEHB39:
	call	_ZN13matplotlibcpp6detail12_interpreter11safe_importEP7_objectNSt7__cxx1112basic_stringIcSt11char_traitsIcESaIcEEE
.LEHE39:
	movq	-200(%rbp), %rdx
	movq	%rax, 72(%rdx)
	leaq	-96(%rbp), %rax
	movq	%rax, %rdi
	call	_ZNSt7__cxx1112basic_stringIcSt11char_traitsIcESaIcEED1Ev@PLT
	leaq	-181(%rbp), %rax
	movq	%rax, %rdi
	call	_ZNSaIcED1Ev@PLT
	leaq	-181(%rbp), %rax
	movq	%rax, %rdi
	call	_ZNSaIcEC1Ev@PLT
	leaq	-181(%rbp), %rdx
	leaq	-96(%rbp), %rax
	leaq	.LC33(%rip), %rcx
	movq	%rcx, %rsi
	movq	%rax, %rdi
.LEHB40:
	call	_ZNSt7__cxx1112basic_stringIcSt11char_traitsIcESaIcEEC1EPKcRKS3_@PLT
.LEHE40:
	leaq	-96(%rbp), %rdx
	movq	-128(%rbp), %rcx
	movq	-200(%rbp), %rax
	movq	%rcx, %rsi
	movq	%rax, %rdi
.LEHB41:
	call	_ZN13matplotlibcpp6detail12_interpreter11safe_importEP7_objectNSt7__cxx1112basic_stringIcSt11char_traitsIcESaIcEEE
.LEHE41:
	movq	-200(%rbp), %rdx
	movq	%rax, 80(%rdx)
	leaq	-96(%rbp), %rax
	movq	%rax, %rdi
	call	_ZNSt7__cxx1112basic_stringIcSt11char_traitsIcESaIcEED1Ev@PLT
	leaq	-181(%rbp), %rax
	movq	%rax, %rdi
	call	_ZNSaIcED1Ev@PLT
	leaq	-181(%rbp), %rax
	movq	%rax, %rdi
	call	_ZNSaIcEC1Ev@PLT
	leaq	-181(%rbp), %rdx
	leaq	-96(%rbp), %rax
	leaq	.LC34(%rip), %rcx
	movq	%rcx, %rsi
	movq	%rax, %rdi
.LEHB42:
	call	_ZNSt7__cxx1112basic_stringIcSt11char_traitsIcESaIcEEC1EPKcRKS3_@PLT
.LEHE42:
	leaq	-96(%rbp), %rdx
	movq	-128(%rbp), %rcx
	movq	-200(%rbp), %rax
	movq	%rcx, %rsi
	movq	%rax, %rdi
.LEHB43:
	call	_ZN13matplotlibcpp6detail12_interpreter11safe_importEP7_objectNSt7__cxx1112basic_stringIcSt11char_traitsIcESaIcEEE
.LEHE43:
	movq	-200(%rbp), %rdx
	movq	%rax, 88(%rdx)
	leaq	-96(%rbp), %rax
	movq	%rax, %rdi
	call	_ZNSt7__cxx1112basic_stringIcSt11char_traitsIcESaIcEED1Ev@PLT
	leaq	-181(%rbp), %rax
	movq	%rax, %rdi
	call	_ZNSaIcED1Ev@PLT
	leaq	-181(%rbp), %rax
	movq	%rax, %rdi
	call	_ZNSaIcEC1Ev@PLT
	leaq	-181(%rbp), %rdx
	leaq	-96(%rbp), %rax
	leaq	.LC35(%rip), %rcx
	movq	%rcx, %rsi
	movq	%rax, %rdi
.LEHB44:
	call	_ZNSt7__cxx1112basic_stringIcSt11char_traitsIcESaIcEEC1EPKcRKS3_@PLT
.LEHE44:
	leaq	-96(%rbp), %rdx
	movq	-128(%rbp), %rcx
	movq	-200(%rbp), %rax
	movq	%rcx, %rsi
	movq	%rax, %rdi
.LEHB45:
	call	_ZN13matplotlibcpp6detail12_interpreter11safe_importEP7_objectNSt7__cxx1112basic_stringIcSt11char_traitsIcESaIcEEE
.LEHE45:
	movq	-200(%rbp), %rdx
	movq	%rax, 96(%rdx)
	leaq	-96(%rbp), %rax
	movq	%rax, %rdi
	call	_ZNSt7__cxx1112basic_stringIcSt11char_traitsIcESaIcEED1Ev@PLT
	leaq	-181(%rbp), %rax
	movq	%rax, %rdi
	call	_ZNSaIcED1Ev@PLT
	leaq	-181(%rbp), %rax
	movq	%rax, %rdi
	call	_ZNSaIcEC1Ev@PLT
	leaq	-181(%rbp), %rdx
	leaq	-96(%rbp), %rax
	leaq	.LC36(%rip), %rcx
	movq	%rcx, %rsi
	movq	%rax, %rdi
.LEHB46:
	call	_ZNSt7__cxx1112basic_stringIcSt11char_traitsIcESaIcEEC1EPKcRKS3_@PLT
.LEHE46:
	leaq	-96(%rbp), %rdx
	movq	-128(%rbp), %rcx
	movq	-200(%rbp), %rax
	movq	%rcx, %rsi
	movq	%rax, %rdi
.LEHB47:
	call	_ZN13matplotlibcpp6detail12_interpreter11safe_importEP7_objectNSt7__cxx1112basic_stringIcSt11char_traitsIcESaIcEEE
.LEHE47:
	movq	-200(%rbp), %rdx
	movq	%rax, 104(%rdx)
	leaq	-96(%rbp), %rax
	movq	%rax, %rdi
	call	_ZNSt7__cxx1112basic_stringIcSt11char_traitsIcESaIcEED1Ev@PLT
	leaq	-181(%rbp), %rax
	movq	%rax, %rdi
	call	_ZNSaIcED1Ev@PLT
	leaq	-181(%rbp), %rax
	movq	%rax, %rdi
	call	_ZNSaIcEC1Ev@PLT
	leaq	-181(%rbp), %rdx
	leaq	-96(%rbp), %rax
	leaq	.LC37(%rip), %rcx
	movq	%rcx, %rsi
	movq	%rax, %rdi
.LEHB48:
	call	_ZNSt7__cxx1112basic_stringIcSt11char_traitsIcESaIcEEC1EPKcRKS3_@PLT
.LEHE48:
	leaq	-96(%rbp), %rdx
	movq	-128(%rbp), %rcx
	movq	-200(%rbp), %rax
	movq	%rcx, %rsi
	movq	%rax, %rdi
.LEHB49:
	call	_ZN13matplotlibcpp6detail12_interpreter11safe_importEP7_objectNSt7__cxx1112basic_stringIcSt11char_traitsIcESaIcEEE
.LEHE49:
	movq	-200(%rbp), %rdx
	movq	%rax, 112(%rdx)
	leaq	-96(%rbp), %rax
	movq	%rax, %rdi
	call	_ZNSt7__cxx1112basic_stringIcSt11char_traitsIcESaIcEED1Ev@PLT
	leaq	-181(%rbp), %rax
	movq	%rax, %rdi
	call	_ZNSaIcED1Ev@PLT
	leaq	-181(%rbp), %rax
	movq	%rax, %rdi
	call	_ZNSaIcEC1Ev@PLT
	leaq	-181(%rbp), %rdx
	leaq	-96(%rbp), %rax
	leaq	.LC38(%rip), %rcx
	movq	%rcx, %rsi
	movq	%rax, %rdi
.LEHB50:
	call	_ZNSt7__cxx1112basic_stringIcSt11char_traitsIcESaIcEEC1EPKcRKS3_@PLT
.LEHE50:
	leaq	-96(%rbp), %rdx
	movq	-128(%rbp), %rcx
	movq	-200(%rbp), %rax
	movq	%rcx, %rsi
	movq	%rax, %rdi
.LEHB51:
	call	_ZN13matplotlibcpp6detail12_interpreter11safe_importEP7_objectNSt7__cxx1112basic_stringIcSt11char_traitsIcESaIcEEE
.LEHE51:
	movq	-200(%rbp), %rdx
	movq	%rax, 120(%rdx)
	leaq	-96(%rbp), %rax
	movq	%rax, %rdi
	call	_ZNSt7__cxx1112basic_stringIcSt11char_traitsIcESaIcEED1Ev@PLT
	leaq	-181(%rbp), %rax
	movq	%rax, %rdi
	call	_ZNSaIcED1Ev@PLT
	leaq	-181(%rbp), %rax
	movq	%rax, %rdi
	call	_ZNSaIcEC1Ev@PLT
	leaq	-181(%rbp), %rdx
	leaq	-96(%rbp), %rax
	leaq	.LC39(%rip), %rcx
	movq	%rcx, %rsi
	movq	%rax, %rdi
.LEHB52:
	call	_ZNSt7__cxx1112basic_stringIcSt11char_traitsIcESaIcEEC1EPKcRKS3_@PLT
.LEHE52:
	leaq	-96(%rbp), %rdx
	movq	-128(%rbp), %rcx
	movq	-200(%rbp), %rax
	movq	%rcx, %rsi
	movq	%rax, %rdi
.LEHB53:
	call	_ZN13matplotlibcpp6detail12_interpreter11safe_importEP7_objectNSt7__cxx1112basic_stringIcSt11char_traitsIcESaIcEEE
.LEHE53:
	movq	-200(%rbp), %rdx
	movq	%rax, 128(%rdx)
	leaq	-96(%rbp), %rax
	movq	%rax, %rdi
	call	_ZNSt7__cxx1112basic_stringIcSt11char_traitsIcESaIcEED1Ev@PLT
	leaq	-181(%rbp), %rax
	movq	%rax, %rdi
	call	_ZNSaIcED1Ev@PLT
	leaq	-181(%rbp), %rax
	movq	%rax, %rdi
	call	_ZNSaIcEC1Ev@PLT
	leaq	-181(%rbp), %rdx
	leaq	-96(%rbp), %rax
	leaq	.LC40(%rip), %rcx
	movq	%rcx, %rsi
	movq	%rax, %rdi
.LEHB54:
	call	_ZNSt7__cxx1112basic_stringIcSt11char_traitsIcESaIcEEC1EPKcRKS3_@PLT
.LEHE54:
	leaq	-96(%rbp), %rdx
	movq	-128(%rbp), %rcx
	movq	-200(%rbp), %rax
	movq	%rcx, %rsi
	movq	%rax, %rdi
.LEHB55:
	call	_ZN13matplotlibcpp6detail12_interpreter11safe_importEP7_objectNSt7__cxx1112basic_stringIcSt11char_traitsIcESaIcEEE
.LEHE55:
	movq	-200(%rbp), %rdx
	movq	%rax, 144(%rdx)
	leaq	-96(%rbp), %rax
	movq	%rax, %rdi
	call	_ZNSt7__cxx1112basic_stringIcSt11char_traitsIcESaIcEED1Ev@PLT
	leaq	-181(%rbp), %rax
	movq	%rax, %rdi
	call	_ZNSaIcED1Ev@PLT
	leaq	-181(%rbp), %rax
	movq	%rax, %rdi
	call	_ZNSaIcEC1Ev@PLT
	leaq	-181(%rbp), %rdx
	leaq	-96(%rbp), %rax
	leaq	.LC41(%rip), %rcx
	movq	%rcx, %rsi
	movq	%rax, %rdi
.LEHB56:
	call	_ZNSt7__cxx1112basic_stringIcSt11char_traitsIcESaIcEEC1EPKcRKS3_@PLT
.LEHE56:
	leaq	-96(%rbp), %rdx
	movq	-128(%rbp), %rcx
	movq	-200(%rbp), %rax
	movq	%rcx, %rsi
	movq	%rax, %rdi
.LEHB57:
	call	_ZN13matplotlibcpp6detail12_interpreter11safe_importEP7_objectNSt7__cxx1112basic_stringIcSt11char_traitsIcESaIcEEE
.LEHE57:
	movq	-200(%rbp), %rdx
	movq	%rax, 152(%rdx)
	leaq	-96(%rbp), %rax
	movq	%rax, %rdi
	call	_ZNSt7__cxx1112basic_stringIcSt11char_traitsIcESaIcEED1Ev@PLT
	leaq	-181(%rbp), %rax
	movq	%rax, %rdi
	call	_ZNSaIcED1Ev@PLT
	leaq	-181(%rbp), %rax
	movq	%rax, %rdi
	call	_ZNSaIcEC1Ev@PLT
	leaq	-181(%rbp), %rdx
	leaq	-96(%rbp), %rax
	leaq	.LC42(%rip), %rcx
	movq	%rcx, %rsi
	movq	%rax, %rdi
.LEHB58:
	call	_ZNSt7__cxx1112basic_stringIcSt11char_traitsIcESaIcEEC1EPKcRKS3_@PLT
.LEHE58:
	leaq	-96(%rbp), %rdx
	movq	-128(%rbp), %rcx
	movq	-200(%rbp), %rax
	movq	%rcx, %rsi
	movq	%rax, %rdi
.LEHB59:
	call	_ZN13matplotlibcpp6detail12_interpreter11safe_importEP7_objectNSt7__cxx1112basic_stringIcSt11char_traitsIcESaIcEEE
.LEHE59:
	movq	-200(%rbp), %rdx
	movq	%rax, 160(%rdx)
	leaq	-96(%rbp), %rax
	movq	%rax, %rdi
	call	_ZNSt7__cxx1112basic_stringIcSt11char_traitsIcESaIcEED1Ev@PLT
	leaq	-181(%rbp), %rax
	movq	%rax, %rdi
	call	_ZNSaIcED1Ev@PLT
	leaq	-181(%rbp), %rax
	movq	%rax, %rdi
	call	_ZNSaIcEC1Ev@PLT
	leaq	-181(%rbp), %rdx
	leaq	-96(%rbp), %rax
	leaq	.LC43(%rip), %rcx
	movq	%rcx, %rsi
	movq	%rax, %rdi
.LEHB60:
	call	_ZNSt7__cxx1112basic_stringIcSt11char_traitsIcESaIcEEC1EPKcRKS3_@PLT
.LEHE60:
	leaq	-96(%rbp), %rdx
	movq	-128(%rbp), %rcx
	movq	-200(%rbp), %rax
	movq	%rcx, %rsi
	movq	%rax, %rdi
.LEHB61:
	call	_ZN13matplotlibcpp6detail12_interpreter11safe_importEP7_objectNSt7__cxx1112basic_stringIcSt11char_traitsIcESaIcEEE
.LEHE61:
	movq	-200(%rbp), %rdx
	movq	%rax, 168(%rdx)
	leaq	-96(%rbp), %rax
	movq	%rax, %rdi
	call	_ZNSt7__cxx1112basic_stringIcSt11char_traitsIcESaIcEED1Ev@PLT
	leaq	-181(%rbp), %rax
	movq	%rax, %rdi
	call	_ZNSaIcED1Ev@PLT
	leaq	-181(%rbp), %rax
	movq	%rax, %rdi
	call	_ZNSaIcEC1Ev@PLT
	leaq	-181(%rbp), %rdx
	leaq	-96(%rbp), %rax
	leaq	.LC44(%rip), %rcx
	movq	%rcx, %rsi
	movq	%rax, %rdi
.LEHB62:
	call	_ZNSt7__cxx1112basic_stringIcSt11char_traitsIcESaIcEEC1EPKcRKS3_@PLT
.LEHE62:
	leaq	-96(%rbp), %rdx
	movq	-128(%rbp), %rcx
	movq	-200(%rbp), %rax
	movq	%rcx, %rsi
	movq	%rax, %rdi
.LEHB63:
	call	_ZN13matplotlibcpp6detail12_interpreter11safe_importEP7_objectNSt7__cxx1112basic_stringIcSt11char_traitsIcESaIcEEE
.LEHE63:
	movq	-200(%rbp), %rdx
	movq	%rax, 176(%rdx)
	leaq	-96(%rbp), %rax
	movq	%rax, %rdi
	call	_ZNSt7__cxx1112basic_stringIcSt11char_traitsIcESaIcEED1Ev@PLT
	leaq	-181(%rbp), %rax
	movq	%rax, %rdi
	call	_ZNSaIcED1Ev@PLT
	leaq	-181(%rbp), %rax
	movq	%rax, %rdi
	call	_ZNSaIcEC1Ev@PLT
	leaq	-181(%rbp), %rdx
	leaq	-96(%rbp), %rax
	leaq	.LC45(%rip), %rcx
	movq	%rcx, %rsi
	movq	%rax, %rdi
.LEHB64:
	call	_ZNSt7__cxx1112basic_stringIcSt11char_traitsIcESaIcEEC1EPKcRKS3_@PLT
.LEHE64:
	leaq	-96(%rbp), %rdx
	movq	-128(%rbp), %rcx
	movq	-200(%rbp), %rax
	movq	%rcx, %rsi
	movq	%rax, %rdi
.LEHB65:
	call	_ZN13matplotlibcpp6detail12_interpreter11safe_importEP7_objectNSt7__cxx1112basic_stringIcSt11char_traitsIcESaIcEEE
.LEHE65:
	movq	-200(%rbp), %rdx
	movq	%rax, 184(%rdx)
	leaq	-96(%rbp), %rax
	movq	%rax, %rdi
	call	_ZNSt7__cxx1112basic_stringIcSt11char_traitsIcESaIcEED1Ev@PLT
	leaq	-181(%rbp), %rax
	movq	%rax, %rdi
	call	_ZNSaIcED1Ev@PLT
	leaq	-181(%rbp), %rax
	movq	%rax, %rdi
	call	_ZNSaIcEC1Ev@PLT
	leaq	-181(%rbp), %rdx
	leaq	-96(%rbp), %rax
	leaq	.LC46(%rip), %rcx
	movq	%rcx, %rsi
	movq	%rax, %rdi
.LEHB66:
	call	_ZNSt7__cxx1112basic_stringIcSt11char_traitsIcESaIcEEC1EPKcRKS3_@PLT
.LEHE66:
	leaq	-96(%rbp), %rdx
	movq	-128(%rbp), %rcx
	movq	-200(%rbp), %rax
	movq	%rcx, %rsi
	movq	%rax, %rdi
.LEHB67:
	call	_ZN13matplotlibcpp6detail12_interpreter11safe_importEP7_objectNSt7__cxx1112basic_stringIcSt11char_traitsIcESaIcEEE
.LEHE67:
	movq	-200(%rbp), %rdx
	movq	%rax, 208(%rdx)
	leaq	-96(%rbp), %rax
	movq	%rax, %rdi
	call	_ZNSt7__cxx1112basic_stringIcSt11char_traitsIcESaIcEED1Ev@PLT
	leaq	-181(%rbp), %rax
	movq	%rax, %rdi
	call	_ZNSaIcED1Ev@PLT
	leaq	-181(%rbp), %rax
	movq	%rax, %rdi
	call	_ZNSaIcEC1Ev@PLT
	leaq	-181(%rbp), %rdx
	leaq	-96(%rbp), %rax
	leaq	.LC47(%rip), %rcx
	movq	%rcx, %rsi
	movq	%rax, %rdi
.LEHB68:
	call	_ZNSt7__cxx1112basic_stringIcSt11char_traitsIcESaIcEEC1EPKcRKS3_@PLT
.LEHE68:
	leaq	-96(%rbp), %rdx
	movq	-128(%rbp), %rcx
	movq	-200(%rbp), %rax
	movq	%rcx, %rsi
	movq	%rax, %rdi
.LEHB69:
	call	_ZN13matplotlibcpp6detail12_interpreter11safe_importEP7_objectNSt7__cxx1112basic_stringIcSt11char_traitsIcESaIcEEE
.LEHE69:
	movq	-200(%rbp), %rdx
	movq	%rax, 216(%rdx)
	leaq	-96(%rbp), %rax
	movq	%rax, %rdi
	call	_ZNSt7__cxx1112basic_stringIcSt11char_traitsIcESaIcEED1Ev@PLT
	leaq	-181(%rbp), %rax
	movq	%rax, %rdi
	call	_ZNSaIcED1Ev@PLT
	leaq	-181(%rbp), %rax
	movq	%rax, %rdi
	call	_ZNSaIcEC1Ev@PLT
	leaq	-181(%rbp), %rdx
	leaq	-96(%rbp), %rax
	leaq	.LC48(%rip), %rcx
	movq	%rcx, %rsi
	movq	%rax, %rdi
.LEHB70:
	call	_ZNSt7__cxx1112basic_stringIcSt11char_traitsIcESaIcEEC1EPKcRKS3_@PLT
.LEHE70:
	leaq	-96(%rbp), %rdx
	movq	-128(%rbp), %rcx
	movq	-200(%rbp), %rax
	movq	%rcx, %rsi
	movq	%rax, %rdi
.LEHB71:
	call	_ZN13matplotlibcpp6detail12_interpreter11safe_importEP7_objectNSt7__cxx1112basic_stringIcSt11char_traitsIcESaIcEEE
.LEHE71:
	movq	-200(%rbp), %rdx
	movq	%rax, 224(%rdx)
	leaq	-96(%rbp), %rax
	movq	%rax, %rdi
	call	_ZNSt7__cxx1112basic_stringIcSt11char_traitsIcESaIcEED1Ev@PLT
	leaq	-181(%rbp), %rax
	movq	%rax, %rdi
	call	_ZNSaIcED1Ev@PLT
	leaq	-181(%rbp), %rax
	movq	%rax, %rdi
	call	_ZNSaIcEC1Ev@PLT
	leaq	-181(%rbp), %rdx
	leaq	-96(%rbp), %rax
	leaq	.LC49(%rip), %rcx
	movq	%rcx, %rsi
	movq	%rax, %rdi
.LEHB72:
	call	_ZNSt7__cxx1112basic_stringIcSt11char_traitsIcESaIcEEC1EPKcRKS3_@PLT
.LEHE72:
	leaq	-96(%rbp), %rdx
	movq	-128(%rbp), %rcx
	movq	-200(%rbp), %rax
	movq	%rcx, %rsi
	movq	%rax, %rdi
.LEHB73:
	call	_ZN13matplotlibcpp6detail12_interpreter11safe_importEP7_objectNSt7__cxx1112basic_stringIcSt11char_traitsIcESaIcEEE
.LEHE73:
	movq	-200(%rbp), %rdx
	movq	%rax, 232(%rdx)
	leaq	-96(%rbp), %rax
	movq	%rax, %rdi
	call	_ZNSt7__cxx1112basic_stringIcSt11char_traitsIcESaIcEED1Ev@PLT
	leaq	-181(%rbp), %rax
	movq	%rax, %rdi
	call	_ZNSaIcED1Ev@PLT
	leaq	-181(%rbp), %rax
	movq	%rax, %rdi
	call	_ZNSaIcEC1Ev@PLT
	leaq	-181(%rbp), %rdx
	leaq	-96(%rbp), %rax
	leaq	.LC50(%rip), %rcx
	movq	%rcx, %rsi
	movq	%rax, %rdi
.LEHB74:
	call	_ZNSt7__cxx1112basic_stringIcSt11char_traitsIcESaIcEEC1EPKcRKS3_@PLT
.LEHE74:
	leaq	-96(%rbp), %rdx
	movq	-128(%rbp), %rcx
	movq	-200(%rbp), %rax
	movq	%rcx, %rsi
	movq	%rax, %rdi
.LEHB75:
	call	_ZN13matplotlibcpp6detail12_interpreter11safe_importEP7_objectNSt7__cxx1112basic_stringIcSt11char_traitsIcESaIcEEE
.LEHE75:
	movq	-200(%rbp), %rdx
	movq	%rax, 240(%rdx)
	leaq	-96(%rbp), %rax
	movq	%rax, %rdi
	call	_ZNSt7__cxx1112basic_stringIcSt11char_traitsIcESaIcEED1Ev@PLT
	leaq	-181(%rbp), %rax
	movq	%rax, %rdi
	call	_ZNSaIcED1Ev@PLT
	leaq	-181(%rbp), %rax
	movq	%rax, %rdi
	call	_ZNSaIcEC1Ev@PLT
	leaq	-181(%rbp), %rdx
	leaq	-96(%rbp), %rax
	leaq	.LC51(%rip), %rcx
	movq	%rcx, %rsi
	movq	%rax, %rdi
.LEHB76:
	call	_ZNSt7__cxx1112basic_stringIcSt11char_traitsIcESaIcEEC1EPKcRKS3_@PLT
.LEHE76:
	leaq	-96(%rbp), %rdx
	movq	-128(%rbp), %rcx
	movq	-200(%rbp), %rax
	movq	%rcx, %rsi
	movq	%rax, %rdi
.LEHB77:
	call	_ZN13matplotlibcpp6detail12_interpreter11safe_importEP7_objectNSt7__cxx1112basic_stringIcSt11char_traitsIcESaIcEEE
.LEHE77:
	movq	-200(%rbp), %rdx
	movq	%rax, 248(%rdx)
	leaq	-96(%rbp), %rax
	movq	%rax, %rdi
	call	_ZNSt7__cxx1112basic_stringIcSt11char_traitsIcESaIcEED1Ev@PLT
	leaq	-181(%rbp), %rax
	movq	%rax, %rdi
	call	_ZNSaIcED1Ev@PLT
	leaq	-181(%rbp), %rax
	movq	%rax, %rdi
	call	_ZNSaIcEC1Ev@PLT
	leaq	-181(%rbp), %rdx
	leaq	-96(%rbp), %rax
	leaq	.LC52(%rip), %rcx
	movq	%rcx, %rsi
	movq	%rax, %rdi
.LEHB78:
	call	_ZNSt7__cxx1112basic_stringIcSt11char_traitsIcESaIcEEC1EPKcRKS3_@PLT
.LEHE78:
	leaq	-96(%rbp), %rdx
	movq	-128(%rbp), %rcx
	movq	-200(%rbp), %rax
	movq	%rcx, %rsi
	movq	%rax, %rdi
.LEHB79:
	call	_ZN13matplotlibcpp6detail12_interpreter11safe_importEP7_objectNSt7__cxx1112basic_stringIcSt11char_traitsIcESaIcEEE
.LEHE79:
	movq	-200(%rbp), %rdx
	movq	%rax, 256(%rdx)
	leaq	-96(%rbp), %rax
	movq	%rax, %rdi
	call	_ZNSt7__cxx1112basic_stringIcSt11char_traitsIcESaIcEED1Ev@PLT
	leaq	-181(%rbp), %rax
	movq	%rax, %rdi
	call	_ZNSaIcED1Ev@PLT
	leaq	-181(%rbp), %rax
	movq	%rax, %rdi
	call	_ZNSaIcEC1Ev@PLT
	leaq	-181(%rbp), %rdx
	leaq	-96(%rbp), %rax
	leaq	.LC53(%rip), %rcx
	movq	%rcx, %rsi
	movq	%rax, %rdi
.LEHB80:
	call	_ZNSt7__cxx1112basic_stringIcSt11char_traitsIcESaIcEEC1EPKcRKS3_@PLT
.LEHE80:
	leaq	-96(%rbp), %rdx
	movq	-128(%rbp), %rcx
	movq	-200(%rbp), %rax
	movq	%rcx, %rsi
	movq	%rax, %rdi
.LEHB81:
	call	_ZN13matplotlibcpp6detail12_interpreter11safe_importEP7_objectNSt7__cxx1112basic_stringIcSt11char_traitsIcESaIcEEE
.LEHE81:
	movq	-200(%rbp), %rdx
	movq	%rax, 264(%rdx)
	leaq	-96(%rbp), %rax
	movq	%rax, %rdi
	call	_ZNSt7__cxx1112basic_stringIcSt11char_traitsIcESaIcEED1Ev@PLT
	leaq	-181(%rbp), %rax
	movq	%rax, %rdi
	call	_ZNSaIcED1Ev@PLT
	leaq	-181(%rbp), %rax
	movq	%rax, %rdi
	call	_ZNSaIcEC1Ev@PLT
	leaq	-181(%rbp), %rdx
	leaq	-96(%rbp), %rax
	leaq	.LC54(%rip), %rcx
	movq	%rcx, %rsi
	movq	%rax, %rdi
.LEHB82:
	call	_ZNSt7__cxx1112basic_stringIcSt11char_traitsIcESaIcEEC1EPKcRKS3_@PLT
.LEHE82:
	leaq	-96(%rbp), %rdx
	movq	-128(%rbp), %rcx
	movq	-200(%rbp), %rax
	movq	%rcx, %rsi
	movq	%rax, %rdi
.LEHB83:
	call	_ZN13matplotlibcpp6detail12_interpreter11safe_importEP7_objectNSt7__cxx1112basic_stringIcSt11char_traitsIcESaIcEEE
.LEHE83:
	movq	-200(%rbp), %rdx
	movq	%rax, 272(%rdx)
	leaq	-96(%rbp), %rax
	movq	%rax, %rdi
	call	_ZNSt7__cxx1112basic_stringIcSt11char_traitsIcESaIcEED1Ev@PLT
	leaq	-181(%rbp), %rax
	movq	%rax, %rdi
	call	_ZNSaIcED1Ev@PLT
	leaq	-181(%rbp), %rax
	movq	%rax, %rdi
	call	_ZNSaIcEC1Ev@PLT
	leaq	-181(%rbp), %rdx
	leaq	-96(%rbp), %rax
	leaq	.LC55(%rip), %rcx
	movq	%rcx, %rsi
	movq	%rax, %rdi
.LEHB84:
	call	_ZNSt7__cxx1112basic_stringIcSt11char_traitsIcESaIcEEC1EPKcRKS3_@PLT
.LEHE84:
	leaq	-96(%rbp), %rdx
	movq	-128(%rbp), %rcx
	movq	-200(%rbp), %rax
	movq	%rcx, %rsi
	movq	%rax, %rdi
.LEHB85:
	call	_ZN13matplotlibcpp6detail12_interpreter11safe_importEP7_objectNSt7__cxx1112basic_stringIcSt11char_traitsIcESaIcEEE
.LEHE85:
	movq	-200(%rbp), %rdx
	movq	%rax, 280(%rdx)
	leaq	-96(%rbp), %rax
	movq	%rax, %rdi
	call	_ZNSt7__cxx1112basic_stringIcSt11char_traitsIcESaIcEED1Ev@PLT
	leaq	-181(%rbp), %rax
	movq	%rax, %rdi
	call	_ZNSaIcED1Ev@PLT
	leaq	-181(%rbp), %rax
	movq	%rax, %rdi
	call	_ZNSaIcEC1Ev@PLT
	leaq	-181(%rbp), %rdx
	leaq	-96(%rbp), %rax
	leaq	.LC56(%rip), %rcx
	movq	%rcx, %rsi
	movq	%rax, %rdi
.LEHB86:
	call	_ZNSt7__cxx1112basic_stringIcSt11char_traitsIcESaIcEEC1EPKcRKS3_@PLT
.LEHE86:
	leaq	-96(%rbp), %rdx
	movq	-128(%rbp), %rcx
	movq	-200(%rbp), %rax
	movq	%rcx, %rsi
	movq	%rax, %rdi
.LEHB87:
	call	_ZN13matplotlibcpp6detail12_interpreter11safe_importEP7_objectNSt7__cxx1112basic_stringIcSt11char_traitsIcESaIcEEE
.LEHE87:
	movq	-200(%rbp), %rdx
	movq	%rax, 288(%rdx)
	leaq	-96(%rbp), %rax
	movq	%rax, %rdi
	call	_ZNSt7__cxx1112basic_stringIcSt11char_traitsIcESaIcEED1Ev@PLT
	leaq	-181(%rbp), %rax
	movq	%rax, %rdi
	call	_ZNSaIcED1Ev@PLT
	leaq	-181(%rbp), %rax
	movq	%rax, %rdi
	call	_ZNSaIcEC1Ev@PLT
	leaq	-181(%rbp), %rdx
	leaq	-96(%rbp), %rax
	leaq	.LC57(%rip), %rcx
	movq	%rcx, %rsi
	movq	%rax, %rdi
.LEHB88:
	call	_ZNSt7__cxx1112basic_stringIcSt11char_traitsIcESaIcEEC1EPKcRKS3_@PLT
.LEHE88:
	leaq	-96(%rbp), %rdx
	movq	-128(%rbp), %rcx
	movq	-200(%rbp), %rax
	movq	%rcx, %rsi
	movq	%rax, %rdi
.LEHB89:
	call	_ZN13matplotlibcpp6detail12_interpreter11safe_importEP7_objectNSt7__cxx1112basic_stringIcSt11char_traitsIcESaIcEEE
.LEHE89:
	movq	-200(%rbp), %rdx
	movq	%rax, 296(%rdx)
	leaq	-96(%rbp), %rax
	movq	%rax, %rdi
	call	_ZNSt7__cxx1112basic_stringIcSt11char_traitsIcESaIcEED1Ev@PLT
	leaq	-181(%rbp), %rax
	movq	%rax, %rdi
	call	_ZNSaIcED1Ev@PLT
	leaq	-181(%rbp), %rax
	movq	%rax, %rdi
	call	_ZNSaIcEC1Ev@PLT
	leaq	-181(%rbp), %rdx
	leaq	-96(%rbp), %rax
	leaq	.LC58(%rip), %rcx
	movq	%rcx, %rsi
	movq	%rax, %rdi
.LEHB90:
	call	_ZNSt7__cxx1112basic_stringIcSt11char_traitsIcESaIcEEC1EPKcRKS3_@PLT
.LEHE90:
	leaq	-96(%rbp), %rdx
	movq	-128(%rbp), %rcx
	movq	-200(%rbp), %rax
	movq	%rcx, %rsi
	movq	%rax, %rdi
.LEHB91:
	call	_ZN13matplotlibcpp6detail12_interpreter11safe_importEP7_objectNSt7__cxx1112basic_stringIcSt11char_traitsIcESaIcEEE
.LEHE91:
	movq	-200(%rbp), %rdx
	movq	%rax, 304(%rdx)
	leaq	-96(%rbp), %rax
	movq	%rax, %rdi
	call	_ZNSt7__cxx1112basic_stringIcSt11char_traitsIcESaIcEED1Ev@PLT
	leaq	-181(%rbp), %rax
	movq	%rax, %rdi
	call	_ZNSaIcED1Ev@PLT
	leaq	-181(%rbp), %rax
	movq	%rax, %rdi
	call	_ZNSaIcEC1Ev@PLT
	leaq	-181(%rbp), %rdx
	leaq	-96(%rbp), %rax
	leaq	.LC59(%rip), %rcx
	movq	%rcx, %rsi
	movq	%rax, %rdi
.LEHB92:
	call	_ZNSt7__cxx1112basic_stringIcSt11char_traitsIcESaIcEEC1EPKcRKS3_@PLT
.LEHE92:
	leaq	-96(%rbp), %rdx
	movq	-128(%rbp), %rcx
	movq	-200(%rbp), %rax
	movq	%rcx, %rsi
	movq	%rax, %rdi
.LEHB93:
	call	_ZN13matplotlibcpp6detail12_interpreter11safe_importEP7_objectNSt7__cxx1112basic_stringIcSt11char_traitsIcESaIcEEE
.LEHE93:
	movq	-200(%rbp), %rdx
	movq	%rax, 312(%rdx)
	leaq	-96(%rbp), %rax
	movq	%rax, %rdi
	call	_ZNSt7__cxx1112basic_stringIcSt11char_traitsIcESaIcEED1Ev@PLT
	leaq	-181(%rbp), %rax
	movq	%rax, %rdi
	call	_ZNSaIcED1Ev@PLT
	leaq	-181(%rbp), %rax
	movq	%rax, %rdi
	call	_ZNSaIcEC1Ev@PLT
	leaq	-181(%rbp), %rdx
	leaq	-96(%rbp), %rax
	leaq	.LC60(%rip), %rcx
	movq	%rcx, %rsi
	movq	%rax, %rdi
.LEHB94:
	call	_ZNSt7__cxx1112basic_stringIcSt11char_traitsIcESaIcEEC1EPKcRKS3_@PLT
.LEHE94:
	leaq	-96(%rbp), %rdx
	movq	-128(%rbp), %rcx
	movq	-200(%rbp), %rax
	movq	%rcx, %rsi
	movq	%rax, %rdi
.LEHB95:
	call	_ZN13matplotlibcpp6detail12_interpreter11safe_importEP7_objectNSt7__cxx1112basic_stringIcSt11char_traitsIcESaIcEEE
.LEHE95:
	movq	-200(%rbp), %rdx
	movq	%rax, 192(%rdx)
	leaq	-96(%rbp), %rax
	movq	%rax, %rdi
	call	_ZNSt7__cxx1112basic_stringIcSt11char_traitsIcESaIcEED1Ev@PLT
	leaq	-181(%rbp), %rax
	movq	%rax, %rdi
	call	_ZNSaIcED1Ev@PLT
	leaq	-181(%rbp), %rax
	movq	%rax, %rdi
	call	_ZNSaIcEC1Ev@PLT
	leaq	-181(%rbp), %rdx
	leaq	-96(%rbp), %rax
	leaq	.LC61(%rip), %rcx
	movq	%rcx, %rsi
	movq	%rax, %rdi
.LEHB96:
	call	_ZNSt7__cxx1112basic_stringIcSt11char_traitsIcESaIcEEC1EPKcRKS3_@PLT
.LEHE96:
	leaq	-96(%rbp), %rdx
	movq	-128(%rbp), %rcx
	movq	-200(%rbp), %rax
	movq	%rcx, %rsi
	movq	%rax, %rdi
.LEHB97:
	call	_ZN13matplotlibcpp6detail12_interpreter11safe_importEP7_objectNSt7__cxx1112basic_stringIcSt11char_traitsIcESaIcEEE
.LEHE97:
	movq	-200(%rbp), %rdx
	movq	%rax, 200(%rdx)
	leaq	-96(%rbp), %rax
	movq	%rax, %rdi
	call	_ZNSt7__cxx1112basic_stringIcSt11char_traitsIcESaIcEED1Ev@PLT
	leaq	-181(%rbp), %rax
	movq	%rax, %rdi
	call	_ZNSaIcED1Ev@PLT
	leaq	-181(%rbp), %rax
	movq	%rax, %rdi
	call	_ZNSaIcEC1Ev@PLT
	leaq	-181(%rbp), %rdx
	leaq	-96(%rbp), %rax
	leaq	.LC62(%rip), %rcx
	movq	%rcx, %rsi
	movq	%rax, %rdi
.LEHB98:
	call	_ZNSt7__cxx1112basic_stringIcSt11char_traitsIcESaIcEEC1EPKcRKS3_@PLT
.LEHE98:
	leaq	-96(%rbp), %rdx
	movq	-120(%rbp), %rcx
	movq	-200(%rbp), %rax
	movq	%rcx, %rsi
	movq	%rax, %rdi
.LEHB99:
	call	_ZN13matplotlibcpp6detail12_interpreter11safe_importEP7_objectNSt7__cxx1112basic_stringIcSt11char_traitsIcESaIcEEE
.LEHE99:
	movq	-200(%rbp), %rdx
	movq	%rax, 40(%rdx)
	leaq	-96(%rbp), %rax
	movq	%rax, %rdi
	call	_ZNSt7__cxx1112basic_stringIcSt11char_traitsIcESaIcEED1Ev@PLT
	leaq	-181(%rbp), %rax
	movq	%rax, %rdi
	call	_ZNSaIcED1Ev@PLT
	leaq	-181(%rbp), %rax
	movq	%rax, %rdi
	call	_ZNSaIcEC1Ev@PLT
	leaq	-181(%rbp), %rdx
	leaq	-96(%rbp), %rax
	leaq	.LC63(%rip), %rcx
	movq	%rcx, %rsi
	movq	%rax, %rdi
.LEHB100:
	call	_ZNSt7__cxx1112basic_stringIcSt11char_traitsIcESaIcEEC1EPKcRKS3_@PLT
.LEHE100:
	leaq	-96(%rbp), %rdx
	movq	-128(%rbp), %rcx
	movq	-200(%rbp), %rax
	movq	%rcx, %rsi
	movq	%rax, %rdi
.LEHB101:
	call	_ZN13matplotlibcpp6detail12_interpreter11safe_importEP7_objectNSt7__cxx1112basic_stringIcSt11char_traitsIcESaIcEEE
.LEHE101:
	movq	-200(%rbp), %rdx
	movq	%rax, 344(%rdx)
	leaq	-96(%rbp), %rax
	movq	%rax, %rdi
	call	_ZNSt7__cxx1112basic_stringIcSt11char_traitsIcESaIcEED1Ev@PLT
	leaq	-181(%rbp), %rax
	movq	%rax, %rdi
	call	_ZNSaIcED1Ev@PLT
	leaq	-181(%rbp), %rax
	movq	%rax, %rdi
	call	_ZNSaIcEC1Ev@PLT
	leaq	-181(%rbp), %rdx
	leaq	-96(%rbp), %rax
	leaq	.LC64(%rip), %rcx
	movq	%rcx, %rsi
	movq	%rax, %rdi
.LEHB102:
	call	_ZNSt7__cxx1112basic_stringIcSt11char_traitsIcESaIcEEC1EPKcRKS3_@PLT
.LEHE102:
	leaq	-96(%rbp), %rdx
	movq	-128(%rbp), %rcx
	movq	-200(%rbp), %rax
	movq	%rcx, %rsi
	movq	%rax, %rdi
.LEHB103:
	call	_ZN13matplotlibcpp6detail12_interpreter11safe_importEP7_objectNSt7__cxx1112basic_stringIcSt11char_traitsIcESaIcEEE
.LEHE103:
	movq	-200(%rbp), %rdx
	movq	%rax, 320(%rdx)
	leaq	-96(%rbp), %rax
	movq	%rax, %rdi
	call	_ZNSt7__cxx1112basic_stringIcSt11char_traitsIcESaIcEED1Ev@PLT
	leaq	-181(%rbp), %rax
	movq	%rax, %rdi
	call	_ZNSaIcED1Ev@PLT
	leaq	-181(%rbp), %rax
	movq	%rax, %rdi
	call	_ZNSaIcEC1Ev@PLT
	leaq	-181(%rbp), %rdx
	leaq	-96(%rbp), %rax
	leaq	.LC65(%rip), %rcx
	movq	%rcx, %rsi
	movq	%rax, %rdi
.LEHB104:
	call	_ZNSt7__cxx1112basic_stringIcSt11char_traitsIcESaIcEEC1EPKcRKS3_@PLT
.LEHE104:
	leaq	-96(%rbp), %rdx
	movq	-128(%rbp), %rcx
	movq	-200(%rbp), %rax
	movq	%rcx, %rsi
	movq	%rax, %rdi
.LEHB105:
	call	_ZN13matplotlibcpp6detail12_interpreter11safe_importEP7_objectNSt7__cxx1112basic_stringIcSt11char_traitsIcESaIcEEE
.LEHE105:
	movq	-200(%rbp), %rdx
	movq	%rax, 328(%rdx)
	leaq	-96(%rbp), %rax
	movq	%rax, %rdi
	call	_ZNSt7__cxx1112basic_stringIcSt11char_traitsIcESaIcEED1Ev@PLT
	leaq	-181(%rbp), %rax
	movq	%rax, %rdi
	call	_ZNSaIcED1Ev@PLT
	leaq	-181(%rbp), %rax
	movq	%rax, %rdi
	call	_ZNSaIcEC1Ev@PLT
	leaq	-181(%rbp), %rdx
	leaq	-96(%rbp), %rax
	leaq	.LC66(%rip), %rcx
	movq	%rcx, %rsi
	movq	%rax, %rdi
.LEHB106:
	call	_ZNSt7__cxx1112basic_stringIcSt11char_traitsIcESaIcEEC1EPKcRKS3_@PLT
.LEHE106:
	leaq	-96(%rbp), %rdx
	movq	-128(%rbp), %rcx
	movq	-200(%rbp), %rax
	movq	%rcx, %rsi
	movq	%rax, %rdi
.LEHB107:
	call	_ZN13matplotlibcpp6detail12_interpreter11safe_importEP7_objectNSt7__cxx1112basic_stringIcSt11char_traitsIcESaIcEEE
.LEHE107:
	movq	-200(%rbp), %rdx
	movq	%rax, 336(%rdx)
	leaq	-96(%rbp), %rax
	movq	%rax, %rdi
	call	_ZNSt7__cxx1112basic_stringIcSt11char_traitsIcESaIcEED1Ev@PLT
	leaq	-181(%rbp), %rax
	movq	%rax, %rdi
	call	_ZNSaIcED1Ev@PLT
	leaq	-181(%rbp), %rax
	movq	%rax, %rdi
	call	_ZNSaIcEC1Ev@PLT
	leaq	-181(%rbp), %rdx
	leaq	-96(%rbp), %rax
	leaq	.LC67(%rip), %rcx
	movq	%rcx, %rsi
	movq	%rax, %rdi
.LEHB108:
	call	_ZNSt7__cxx1112basic_stringIcSt11char_traitsIcESaIcEEC1EPKcRKS3_@PLT
.LEHE108:
	leaq	-96(%rbp), %rdx
	movq	-128(%rbp), %rcx
	movq	-200(%rbp), %rax
	movq	%rcx, %rsi
	movq	%rax, %rdi
.LEHB109:
	call	_ZN13matplotlibcpp6detail12_interpreter11safe_importEP7_objectNSt7__cxx1112basic_stringIcSt11char_traitsIcESaIcEEE
.LEHE109:
	movq	-200(%rbp), %rdx
	movq	%rax, 352(%rdx)
	leaq	-96(%rbp), %rax
	movq	%rax, %rdi
	call	_ZNSt7__cxx1112basic_stringIcSt11char_traitsIcESaIcEED1Ev@PLT
	leaq	-181(%rbp), %rax
	movq	%rax, %rdi
	call	_ZNSaIcED1Ev@PLT
	leaq	-181(%rbp), %rax
	movq	%rax, %rdi
	call	_ZNSaIcEC1Ev@PLT
	leaq	-181(%rbp), %rdx
	leaq	-96(%rbp), %rax
	leaq	.LC68(%rip), %rcx
	movq	%rcx, %rsi
	movq	%rax, %rdi
.LEHB110:
	call	_ZNSt7__cxx1112basic_stringIcSt11char_traitsIcESaIcEEC1EPKcRKS3_@PLT
.LEHE110:
	leaq	-96(%rbp), %rdx
	movq	-128(%rbp), %rcx
	movq	-200(%rbp), %rax
	movq	%rcx, %rsi
	movq	%rax, %rdi
.LEHB111:
	call	_ZN13matplotlibcpp6detail12_interpreter11safe_importEP7_objectNSt7__cxx1112basic_stringIcSt11char_traitsIcESaIcEEE
.LEHE111:
	movq	-200(%rbp), %rdx
	movq	%rax, 376(%rdx)
	leaq	-96(%rbp), %rax
	movq	%rax, %rdi
	call	_ZNSt7__cxx1112basic_stringIcSt11char_traitsIcESaIcEED1Ev@PLT
	leaq	-181(%rbp), %rax
	movq	%rax, %rdi
	call	_ZNSaIcED1Ev@PLT
	leaq	-181(%rbp), %rax
	movq	%rax, %rdi
	call	_ZNSaIcEC1Ev@PLT
	leaq	-181(%rbp), %rdx
	leaq	-96(%rbp), %rax
	leaq	.LC69(%rip), %rcx
	movq	%rcx, %rsi
	movq	%rax, %rdi
.LEHB112:
	call	_ZNSt7__cxx1112basic_stringIcSt11char_traitsIcESaIcEEC1EPKcRKS3_@PLT
.LEHE112:
	leaq	-96(%rbp), %rdx
	movq	-128(%rbp), %rcx
	movq	-200(%rbp), %rax
	movq	%rcx, %rsi
	movq	%rax, %rdi
.LEHB113:
	call	_ZN13matplotlibcpp6detail12_interpreter11safe_importEP7_objectNSt7__cxx1112basic_stringIcSt11char_traitsIcESaIcEEE
.LEHE113:
	movq	-200(%rbp), %rdx
	movq	%rax, 384(%rdx)
	leaq	-96(%rbp), %rax
	movq	%rax, %rdi
	call	_ZNSt7__cxx1112basic_stringIcSt11char_traitsIcESaIcEED1Ev@PLT
	leaq	-181(%rbp), %rax
	movq	%rax, %rdi
	call	_ZNSaIcED1Ev@PLT
	leaq	-181(%rbp), %rax
	movq	%rax, %rdi
	call	_ZNSaIcEC1Ev@PLT
	leaq	-181(%rbp), %rdx
	leaq	-96(%rbp), %rax
	leaq	.LC70(%rip), %rcx
	movq	%rcx, %rsi
	movq	%rax, %rdi
.LEHB114:
	call	_ZNSt7__cxx1112basic_stringIcSt11char_traitsIcESaIcEEC1EPKcRKS3_@PLT
.LEHE114:
	leaq	-96(%rbp), %rdx
	movq	-128(%rbp), %rcx
	movq	-200(%rbp), %rax
	movq	%rcx, %rsi
	movq	%rax, %rdi
.LEHB115:
	call	_ZN13matplotlibcpp6detail12_interpreter11safe_importEP7_objectNSt7__cxx1112basic_stringIcSt11char_traitsIcESaIcEEE
.LEHE115:
	movq	-200(%rbp), %rdx
	movq	%rax, 392(%rdx)
	leaq	-96(%rbp), %rax
	movq	%rax, %rdi
	call	_ZNSt7__cxx1112basic_stringIcSt11char_traitsIcESaIcEED1Ev@PLT
	leaq	-181(%rbp), %rax
	movq	%rax, %rdi
	call	_ZNSaIcED1Ev@PLT
	leaq	-181(%rbp), %rax
	movq	%rax, %rdi
	call	_ZNSaIcEC1Ev@PLT
	leaq	-181(%rbp), %rdx
	leaq	-96(%rbp), %rax
	leaq	.LC71(%rip), %rcx
	movq	%rcx, %rsi
	movq	%rax, %rdi
.LEHB116:
	call	_ZNSt7__cxx1112basic_stringIcSt11char_traitsIcESaIcEEC1EPKcRKS3_@PLT
.LEHE116:
	leaq	-96(%rbp), %rdx
	movq	-128(%rbp), %rcx
	movq	-200(%rbp), %rax
	movq	%rcx, %rsi
	movq	%rax, %rdi
.LEHB117:
	call	_ZN13matplotlibcpp6detail12_interpreter11safe_importEP7_objectNSt7__cxx1112basic_stringIcSt11char_traitsIcESaIcEEE
.LEHE117:
	movq	-200(%rbp), %rdx
	movq	%rax, 400(%rdx)
	leaq	-96(%rbp), %rax
	movq	%rax, %rdi
	call	_ZNSt7__cxx1112basic_stringIcSt11char_traitsIcESaIcEED1Ev@PLT
	leaq	-181(%rbp), %rax
	movq	%rax, %rdi
	call	_ZNSaIcED1Ev@PLT
	leaq	-181(%rbp), %rax
	movq	%rax, %rdi
	call	_ZNSaIcEC1Ev@PLT
	leaq	-181(%rbp), %rdx
	leaq	-96(%rbp), %rax
	leaq	.LC72(%rip), %rcx
	movq	%rcx, %rsi
	movq	%rax, %rdi
.LEHB118:
	call	_ZNSt7__cxx1112basic_stringIcSt11char_traitsIcESaIcEEC1EPKcRKS3_@PLT
.LEHE118:
	leaq	-96(%rbp), %rdx
	movq	-128(%rbp), %rcx
	movq	-200(%rbp), %rax
	movq	%rcx, %rsi
	movq	%rax, %rdi
.LEHB119:
	call	_ZN13matplotlibcpp6detail12_interpreter11safe_importEP7_objectNSt7__cxx1112basic_stringIcSt11char_traitsIcESaIcEEE
.LEHE119:
	movq	-200(%rbp), %rdx
	movq	%rax, 408(%rdx)
	leaq	-96(%rbp), %rax
	movq	%rax, %rdi
	call	_ZNSt7__cxx1112basic_stringIcSt11char_traitsIcESaIcEED1Ev@PLT
	leaq	-181(%rbp), %rax
	movq	%rax, %rdi
	call	_ZNSaIcED1Ev@PLT
	leaq	-181(%rbp), %rax
	movq	%rax, %rdi
	call	_ZNSaIcEC1Ev@PLT
	leaq	-181(%rbp), %rdx
	leaq	-96(%rbp), %rax
	leaq	.LC73(%rip), %rcx
	movq	%rcx, %rsi
	movq	%rax, %rdi
.LEHB120:
	call	_ZNSt7__cxx1112basic_stringIcSt11char_traitsIcESaIcEEC1EPKcRKS3_@PLT
.LEHE120:
	leaq	-96(%rbp), %rdx
	movq	-128(%rbp), %rcx
	movq	-200(%rbp), %rax
	movq	%rcx, %rsi
	movq	%rax, %rdi
.LEHB121:
	call	_ZN13matplotlibcpp6detail12_interpreter11safe_importEP7_objectNSt7__cxx1112basic_stringIcSt11char_traitsIcESaIcEEE
.LEHE121:
	movq	-200(%rbp), %rdx
	movq	%rax, 416(%rdx)
	leaq	-96(%rbp), %rax
	movq	%rax, %rdi
	call	_ZNSt7__cxx1112basic_stringIcSt11char_traitsIcESaIcEED1Ev@PLT
	leaq	-181(%rbp), %rax
	movq	%rax, %rdi
	call	_ZNSaIcED1Ev@PLT
	movq	-128(%rbp), %rax
	leaq	.LC74(%rip), %rdx
	movq	%rdx, %rsi
	movq	%rax, %rdi
.LEHB122:
	call	PyObject_GetAttrString@PLT
.LEHE122:
	movq	-200(%rbp), %rdx
	movq	%rax, 424(%rdx)
	leaq	-181(%rbp), %rax
	movq	%rax, %rdi
	call	_ZNSaIcEC1Ev@PLT
	leaq	-181(%rbp), %rdx
	leaq	-96(%rbp), %rax
	leaq	.LC75(%rip), %rcx
	movq	%rcx, %rsi
	movq	%rax, %rdi
.LEHB123:
	call	_ZNSt7__cxx1112basic_stringIcSt11char_traitsIcESaIcEEC1EPKcRKS3_@PLT
.LEHE123:
	leaq	-96(%rbp), %rdx
	movq	-128(%rbp), %rcx
	movq	-200(%rbp), %rax
	movq	%rcx, %rsi
	movq	%rax, %rdi
.LEHB124:
	call	_ZN13matplotlibcpp6detail12_interpreter11safe_importEP7_objectNSt7__cxx1112basic_stringIcSt11char_traitsIcESaIcEEE
.LEHE124:
	movq	-200(%rbp), %rdx
	movq	%rax, 432(%rdx)
	leaq	-96(%rbp), %rax
	movq	%rax, %rdi
	call	_ZNSt7__cxx1112basic_stringIcSt11char_traitsIcESaIcEED1Ev@PLT
	leaq	-181(%rbp), %rax
	movq	%rax, %rdi
	call	_ZNSaIcED1Ev@PLT
	movq	-128(%rbp), %rax
	leaq	.LC76(%rip), %rdx
	movq	%rdx, %rsi
	movq	%rax, %rdi
.LEHB125:
	call	PyObject_GetAttrString@PLT
	movq	-200(%rbp), %rdx
	movq	%rax, 440(%rdx)
	movq	-128(%rbp), %rax
	leaq	.LC77(%rip), %rdx
	movq	%rdx, %rsi
	movq	%rax, %rdi
	call	PyObject_GetAttrString@PLT
.LEHE125:
	movq	-200(%rbp), %rdx
	movq	%rax, 448(%rdx)
	leaq	-181(%rbp), %rax
	movq	%rax, %rdi
	call	_ZNSaIcEC1Ev@PLT
	leaq	-181(%rbp), %rdx
	leaq	-96(%rbp), %rax
	leaq	.LC78(%rip), %rcx
	movq	%rcx, %rsi
	movq	%rax, %rdi
.LEHB126:
	call	_ZNSt7__cxx1112basic_stringIcSt11char_traitsIcESaIcEEC1EPKcRKS3_@PLT
.LEHE126:
	leaq	-96(%rbp), %rdx
	movq	-128(%rbp), %rcx
	movq	-200(%rbp), %rax
	movq	%rcx, %rsi
	movq	%rax, %rdi
.LEHB127:
	call	_ZN13matplotlibcpp6detail12_interpreter11safe_importEP7_objectNSt7__cxx1112basic_stringIcSt11char_traitsIcESaIcEEE
.LEHE127:
	movq	-200(%rbp), %rdx
	movq	%rax, 136(%rdx)
	leaq	-96(%rbp), %rax
	movq	%rax, %rdi
	call	_ZNSt7__cxx1112basic_stringIcSt11char_traitsIcESaIcEED1Ev@PLT
	leaq	-181(%rbp), %rax
	movq	%rax, %rdi
	call	_ZNSaIcED1Ev@PLT
	movl	$0, %edi
.LEHB128:
	call	PyTuple_New@PLT
	movq	-200(%rbp), %rdx
	movq	%rax, 368(%rdx)
	nop
	movq	-24(%rbp), %rax
	subq	%fs:40, %rax
	je	.L169
	jmp	.L279
.L170:
	endbr64
	movq	%rax, %r12
	movq	%rbx, %rdi
	call	__cxa_free_exception@PLT
	movq	%r12, %rax
	movq	%rax, %rdi
	call	_Unwind_Resume@PLT
.L171:
	endbr64
	movq	%rax, %r12
	movq	%rbx, %rdi
	call	__cxa_free_exception@PLT
	movq	%r12, %rax
	movq	%rax, %rdi
	call	_Unwind_Resume@PLT
.L172:
	endbr64
	movq	%rax, %r12
	movq	%rbx, %rdi
	call	__cxa_free_exception@PLT
	movq	%r12, %rax
	movq	%rax, %rdi
	call	_Unwind_Resume@PLT
.L173:
	endbr64
	movq	%rax, %r12
	movq	%rbx, %rdi
	call	__cxa_free_exception@PLT
	movq	%r12, %rax
	movq	%rax, %rdi
	call	_Unwind_Resume@PLT
.L174:
	endbr64
	movq	%rax, %r12
	movq	%rbx, %rdi
	call	__cxa_free_exception@PLT
	movq	%r12, %rax
	movq	%rax, %rdi
	call	_Unwind_Resume@PLT
.L176:
	endbr64
	movq	%rax, %rbx
	leaq	-96(%rbp), %rax
	movq	%rax, %rdi
	call	_ZNSt7__cxx1112basic_stringIcSt11char_traitsIcESaIcEED1Ev@PLT
	jmp	.L66
.L175:
	endbr64
	movq	%rax, %rbx
.L66:
	leaq	-181(%rbp), %rax
	movq	%rax, %rdi
	call	_ZNSaIcED1Ev@PLT
	movq	%rbx, %rax
	movq	%rax, %rdi
	call	_Unwind_Resume@PLT
.L178:
	endbr64
	movq	%rax, %rbx
	leaq	-96(%rbp), %rax
	movq	%rax, %rdi
	call	_ZNSt7__cxx1112basic_stringIcSt11char_traitsIcESaIcEED1Ev@PLT
	jmp	.L68
.L177:
	endbr64
	movq	%rax, %rbx
.L68:
	leaq	-181(%rbp), %rax
	movq	%rax, %rdi
	call	_ZNSaIcED1Ev@PLT
	movq	%rbx, %rax
	movq	%rax, %rdi
	call	_Unwind_Resume@PLT
.L180:
	endbr64
	movq	%rax, %rbx
	leaq	-96(%rbp), %rax
	movq	%rax, %rdi
	call	_ZNSt7__cxx1112basic_stringIcSt11char_traitsIcESaIcEED1Ev@PLT
	jmp	.L70
.L179:
	endbr64
	movq	%rax, %rbx
.L70:
	leaq	-181(%rbp), %rax
	movq	%rax, %rdi
	call	_ZNSaIcED1Ev@PLT
	movq	%rbx, %rax
	movq	%rax, %rdi
	call	_Unwind_Resume@PLT
.L182:
	endbr64
	movq	%rax, %rbx
	leaq	-96(%rbp), %rax
	movq	%rax, %rdi
	call	_ZNSt7__cxx1112basic_stringIcSt11char_traitsIcESaIcEED1Ev@PLT
	jmp	.L72
.L181:
	endbr64
	movq	%rax, %rbx
.L72:
	leaq	-181(%rbp), %rax
	movq	%rax, %rdi
	call	_ZNSaIcED1Ev@PLT
	movq	%rbx, %rax
	movq	%rax, %rdi
	call	_Unwind_Resume@PLT
.L184:
	endbr64
	movq	%rax, %rbx
	leaq	-96(%rbp), %rax
	movq	%rax, %rdi
	call	_ZNSt7__cxx1112basic_stringIcSt11char_traitsIcESaIcEED1Ev@PLT
	jmp	.L74
.L183:
	endbr64
	movq	%rax, %rbx
.L74:
	leaq	-181(%rbp), %rax
	movq	%rax, %rdi
	call	_ZNSaIcED1Ev@PLT
	movq	%rbx, %rax
	movq	%rax, %rdi
	call	_Unwind_Resume@PLT
.L186:
	endbr64
	movq	%rax, %rbx
	leaq	-96(%rbp), %rax
	movq	%rax, %rdi
	call	_ZNSt7__cxx1112basic_stringIcSt11char_traitsIcESaIcEED1Ev@PLT
	jmp	.L76
.L185:
	endbr64
	movq	%rax, %rbx
.L76:
	leaq	-181(%rbp), %rax
	movq	%rax, %rdi
	call	_ZNSaIcED1Ev@PLT
	movq	%rbx, %rax
	movq	%rax, %rdi
	call	_Unwind_Resume@PLT
.L188:
	endbr64
	movq	%rax, %rbx
	leaq	-96(%rbp), %rax
	movq	%rax, %rdi
	call	_ZNSt7__cxx1112basic_stringIcSt11char_traitsIcESaIcEED1Ev@PLT
	jmp	.L78
.L187:
	endbr64
	movq	%rax, %rbx
.L78:
	leaq	-181(%rbp), %rax
	movq	%rax, %rdi
	call	_ZNSaIcED1Ev@PLT
	movq	%rbx, %rax
	movq	%rax, %rdi
	call	_Unwind_Resume@PLT
.L190:
	endbr64
	movq	%rax, %rbx
	leaq	-96(%rbp), %rax
	movq	%rax, %rdi
	call	_ZNSt7__cxx1112basic_stringIcSt11char_traitsIcESaIcEED1Ev@PLT
	jmp	.L80
.L189:
	endbr64
	movq	%rax, %rbx
.L80:
	leaq	-181(%rbp), %rax
	movq	%rax, %rdi
	call	_ZNSaIcED1Ev@PLT
	movq	%rbx, %rax
	movq	%rax, %rdi
	call	_Unwind_Resume@PLT
.L192:
	endbr64
	movq	%rax, %rbx
	leaq	-96(%rbp), %rax
	movq	%rax, %rdi
	call	_ZNSt7__cxx1112basic_stringIcSt11char_traitsIcESaIcEED1Ev@PLT
	jmp	.L82
.L191:
	endbr64
	movq	%rax, %rbx
.L82:
	leaq	-181(%rbp), %rax
	movq	%rax, %rdi
	call	_ZNSaIcED1Ev@PLT
	movq	%rbx, %rax
	movq	%rax, %rdi
	call	_Unwind_Resume@PLT
.L194:
	endbr64
	movq	%rax, %rbx
	leaq	-96(%rbp), %rax
	movq	%rax, %rdi
	call	_ZNSt7__cxx1112basic_stringIcSt11char_traitsIcESaIcEED1Ev@PLT
	jmp	.L84
.L193:
	endbr64
	movq	%rax, %rbx
.L84:
	leaq	-181(%rbp), %rax
	movq	%rax, %rdi
	call	_ZNSaIcED1Ev@PLT
	movq	%rbx, %rax
	movq	%rax, %rdi
	call	_Unwind_Resume@PLT
.L196:
	endbr64
	movq	%rax, %rbx
	leaq	-96(%rbp), %rax
	movq	%rax, %rdi
	call	_ZNSt7__cxx1112basic_stringIcSt11char_traitsIcESaIcEED1Ev@PLT
	jmp	.L86
.L195:
	endbr64
	movq	%rax, %rbx
.L86:
	leaq	-181(%rbp), %rax
	movq	%rax, %rdi
	call	_ZNSaIcED1Ev@PLT
	movq	%rbx, %rax
	movq	%rax, %rdi
	call	_Unwind_Resume@PLT
.L198:
	endbr64
	movq	%rax, %rbx
	leaq	-96(%rbp), %rax
	movq	%rax, %rdi
	call	_ZNSt7__cxx1112basic_stringIcSt11char_traitsIcESaIcEED1Ev@PLT
	jmp	.L88
.L197:
	endbr64
	movq	%rax, %rbx
.L88:
	leaq	-181(%rbp), %rax
	movq	%rax, %rdi
	call	_ZNSaIcED1Ev@PLT
	movq	%rbx, %rax
	movq	%rax, %rdi
	call	_Unwind_Resume@PLT
.L200:
	endbr64
	movq	%rax, %rbx
	leaq	-96(%rbp), %rax
	movq	%rax, %rdi
	call	_ZNSt7__cxx1112basic_stringIcSt11char_traitsIcESaIcEED1Ev@PLT
	jmp	.L90
.L199:
	endbr64
	movq	%rax, %rbx
.L90:
	leaq	-181(%rbp), %rax
	movq	%rax, %rdi
	call	_ZNSaIcED1Ev@PLT
	movq	%rbx, %rax
	movq	%rax, %rdi
	call	_Unwind_Resume@PLT
.L202:
	endbr64
	movq	%rax, %rbx
	leaq	-96(%rbp), %rax
	movq	%rax, %rdi
	call	_ZNSt7__cxx1112basic_stringIcSt11char_traitsIcESaIcEED1Ev@PLT
	jmp	.L92
.L201:
	endbr64
	movq	%rax, %rbx
.L92:
	leaq	-181(%rbp), %rax
	movq	%rax, %rdi
	call	_ZNSaIcED1Ev@PLT
	movq	%rbx, %rax
	movq	%rax, %rdi
	call	_Unwind_Resume@PLT
.L204:
	endbr64
	movq	%rax, %rbx
	leaq	-96(%rbp), %rax
	movq	%rax, %rdi
	call	_ZNSt7__cxx1112basic_stringIcSt11char_traitsIcESaIcEED1Ev@PLT
	jmp	.L94
.L203:
	endbr64
	movq	%rax, %rbx
.L94:
	leaq	-181(%rbp), %rax
	movq	%rax, %rdi
	call	_ZNSaIcED1Ev@PLT
	movq	%rbx, %rax
	movq	%rax, %rdi
	call	_Unwind_Resume@PLT
.L206:
	endbr64
	movq	%rax, %rbx
	leaq	-96(%rbp), %rax
	movq	%rax, %rdi
	call	_ZNSt7__cxx1112basic_stringIcSt11char_traitsIcESaIcEED1Ev@PLT
	jmp	.L96
.L205:
	endbr64
	movq	%rax, %rbx
.L96:
	leaq	-181(%rbp), %rax
	movq	%rax, %rdi
	call	_ZNSaIcED1Ev@PLT
	movq	%rbx, %rax
	movq	%rax, %rdi
	call	_Unwind_Resume@PLT
.L208:
	endbr64
	movq	%rax, %rbx
	leaq	-96(%rbp), %rax
	movq	%rax, %rdi
	call	_ZNSt7__cxx1112basic_stringIcSt11char_traitsIcESaIcEED1Ev@PLT
	jmp	.L98
.L207:
	endbr64
	movq	%rax, %rbx
.L98:
	leaq	-181(%rbp), %rax
	movq	%rax, %rdi
	call	_ZNSaIcED1Ev@PLT
	movq	%rbx, %rax
	movq	%rax, %rdi
	call	_Unwind_Resume@PLT
.L210:
	endbr64
	movq	%rax, %rbx
	leaq	-96(%rbp), %rax
	movq	%rax, %rdi
	call	_ZNSt7__cxx1112basic_stringIcSt11char_traitsIcESaIcEED1Ev@PLT
	jmp	.L100
.L209:
	endbr64
	movq	%rax, %rbx
.L100:
	leaq	-181(%rbp), %rax
	movq	%rax, %rdi
	call	_ZNSaIcED1Ev@PLT
	movq	%rbx, %rax
	movq	%rax, %rdi
	call	_Unwind_Resume@PLT
.L212:
	endbr64
	movq	%rax, %rbx
	leaq	-96(%rbp), %rax
	movq	%rax, %rdi
	call	_ZNSt7__cxx1112basic_stringIcSt11char_traitsIcESaIcEED1Ev@PLT
	jmp	.L102
.L211:
	endbr64
	movq	%rax, %rbx
.L102:
	leaq	-181(%rbp), %rax
	movq	%rax, %rdi
	call	_ZNSaIcED1Ev@PLT
	movq	%rbx, %rax
	movq	%rax, %rdi
	call	_Unwind_Resume@PLT
.L214:
	endbr64
	movq	%rax, %rbx
	leaq	-96(%rbp), %rax
	movq	%rax, %rdi
	call	_ZNSt7__cxx1112basic_stringIcSt11char_traitsIcESaIcEED1Ev@PLT
	jmp	.L104
.L213:
	endbr64
	movq	%rax, %rbx
.L104:
	leaq	-181(%rbp), %rax
	movq	%rax, %rdi
	call	_ZNSaIcED1Ev@PLT
	movq	%rbx, %rax
	movq	%rax, %rdi
	call	_Unwind_Resume@PLT
.L216:
	endbr64
	movq	%rax, %rbx
	leaq	-96(%rbp), %rax
	movq	%rax, %rdi
	call	_ZNSt7__cxx1112basic_stringIcSt11char_traitsIcESaIcEED1Ev@PLT
	jmp	.L106
.L215:
	endbr64
	movq	%rax, %rbx
.L106:
	leaq	-181(%rbp), %rax
	movq	%rax, %rdi
	call	_ZNSaIcED1Ev@PLT
	movq	%rbx, %rax
	movq	%rax, %rdi
	call	_Unwind_Resume@PLT
.L218:
	endbr64
	movq	%rax, %rbx
	leaq	-96(%rbp), %rax
	movq	%rax, %rdi
	call	_ZNSt7__cxx1112basic_stringIcSt11char_traitsIcESaIcEED1Ev@PLT
	jmp	.L108
.L217:
	endbr64
	movq	%rax, %rbx
.L108:
	leaq	-181(%rbp), %rax
	movq	%rax, %rdi
	call	_ZNSaIcED1Ev@PLT
	movq	%rbx, %rax
	movq	%rax, %rdi
	call	_Unwind_Resume@PLT
.L220:
	endbr64
	movq	%rax, %rbx
	leaq	-96(%rbp), %rax
	movq	%rax, %rdi
	call	_ZNSt7__cxx1112basic_stringIcSt11char_traitsIcESaIcEED1Ev@PLT
	jmp	.L110
.L219:
	endbr64
	movq	%rax, %rbx
.L110:
	leaq	-181(%rbp), %rax
	movq	%rax, %rdi
	call	_ZNSaIcED1Ev@PLT
	movq	%rbx, %rax
	movq	%rax, %rdi
	call	_Unwind_Resume@PLT
.L222:
	endbr64
	movq	%rax, %rbx
	leaq	-96(%rbp), %rax
	movq	%rax, %rdi
	call	_ZNSt7__cxx1112basic_stringIcSt11char_traitsIcESaIcEED1Ev@PLT
	jmp	.L112
.L221:
	endbr64
	movq	%rax, %rbx
.L112:
	leaq	-181(%rbp), %rax
	movq	%rax, %rdi
	call	_ZNSaIcED1Ev@PLT
	movq	%rbx, %rax
	movq	%rax, %rdi
	call	_Unwind_Resume@PLT
.L224:
	endbr64
	movq	%rax, %rbx
	leaq	-96(%rbp), %rax
	movq	%rax, %rdi
	call	_ZNSt7__cxx1112basic_stringIcSt11char_traitsIcESaIcEED1Ev@PLT
	jmp	.L114
.L223:
	endbr64
	movq	%rax, %rbx
.L114:
	leaq	-181(%rbp), %rax
	movq	%rax, %rdi
	call	_ZNSaIcED1Ev@PLT
	movq	%rbx, %rax
	movq	%rax, %rdi
	call	_Unwind_Resume@PLT
.L226:
	endbr64
	movq	%rax, %rbx
	leaq	-96(%rbp), %rax
	movq	%rax, %rdi
	call	_ZNSt7__cxx1112basic_stringIcSt11char_traitsIcESaIcEED1Ev@PLT
	jmp	.L116
.L225:
	endbr64
	movq	%rax, %rbx
.L116:
	leaq	-181(%rbp), %rax
	movq	%rax, %rdi
	call	_ZNSaIcED1Ev@PLT
	movq	%rbx, %rax
	movq	%rax, %rdi
	call	_Unwind_Resume@PLT
.L228:
	endbr64
	movq	%rax, %rbx
	leaq	-96(%rbp), %rax
	movq	%rax, %rdi
	call	_ZNSt7__cxx1112basic_stringIcSt11char_traitsIcESaIcEED1Ev@PLT
	jmp	.L118
.L227:
	endbr64
	movq	%rax, %rbx
.L118:
	leaq	-181(%rbp), %rax
	movq	%rax, %rdi
	call	_ZNSaIcED1Ev@PLT
	movq	%rbx, %rax
	movq	%rax, %rdi
	call	_Unwind_Resume@PLT
.L230:
	endbr64
	movq	%rax, %rbx
	leaq	-96(%rbp), %rax
	movq	%rax, %rdi
	call	_ZNSt7__cxx1112basic_stringIcSt11char_traitsIcESaIcEED1Ev@PLT
	jmp	.L120
.L229:
	endbr64
	movq	%rax, %rbx
.L120:
	leaq	-181(%rbp), %rax
	movq	%rax, %rdi
	call	_ZNSaIcED1Ev@PLT
	movq	%rbx, %rax
	movq	%rax, %rdi
	call	_Unwind_Resume@PLT
.L232:
	endbr64
	movq	%rax, %rbx
	leaq	-96(%rbp), %rax
	movq	%rax, %rdi
	call	_ZNSt7__cxx1112basic_stringIcSt11char_traitsIcESaIcEED1Ev@PLT
	jmp	.L122
.L231:
	endbr64
	movq	%rax, %rbx
.L122:
	leaq	-181(%rbp), %rax
	movq	%rax, %rdi
	call	_ZNSaIcED1Ev@PLT
	movq	%rbx, %rax
	movq	%rax, %rdi
	call	_Unwind_Resume@PLT
.L234:
	endbr64
	movq	%rax, %rbx
	leaq	-96(%rbp), %rax
	movq	%rax, %rdi
	call	_ZNSt7__cxx1112basic_stringIcSt11char_traitsIcESaIcEED1Ev@PLT
	jmp	.L124
.L233:
	endbr64
	movq	%rax, %rbx
.L124:
	leaq	-181(%rbp), %rax
	movq	%rax, %rdi
	call	_ZNSaIcED1Ev@PLT
	movq	%rbx, %rax
	movq	%rax, %rdi
	call	_Unwind_Resume@PLT
.L236:
	endbr64
	movq	%rax, %rbx
	leaq	-96(%rbp), %rax
	movq	%rax, %rdi
	call	_ZNSt7__cxx1112basic_stringIcSt11char_traitsIcESaIcEED1Ev@PLT
	jmp	.L126
.L235:
	endbr64
	movq	%rax, %rbx
.L126:
	leaq	-181(%rbp), %rax
	movq	%rax, %rdi
	call	_ZNSaIcED1Ev@PLT
	movq	%rbx, %rax
	movq	%rax, %rdi
	call	_Unwind_Resume@PLT
.L238:
	endbr64
	movq	%rax, %rbx
	leaq	-96(%rbp), %rax
	movq	%rax, %rdi
	call	_ZNSt7__cxx1112basic_stringIcSt11char_traitsIcESaIcEED1Ev@PLT
	jmp	.L128
.L237:
	endbr64
	movq	%rax, %rbx
.L128:
	leaq	-181(%rbp), %rax
	movq	%rax, %rdi
	call	_ZNSaIcED1Ev@PLT
	movq	%rbx, %rax
	movq	%rax, %rdi
	call	_Unwind_Resume@PLT
.L240:
	endbr64
	movq	%rax, %rbx
	leaq	-96(%rbp), %rax
	movq	%rax, %rdi
	call	_ZNSt7__cxx1112basic_stringIcSt11char_traitsIcESaIcEED1Ev@PLT
	jmp	.L130
.L239:
	endbr64
	movq	%rax, %rbx
.L130:
	leaq	-181(%rbp), %rax
	movq	%rax, %rdi
	call	_ZNSaIcED1Ev@PLT
	movq	%rbx, %rax
	movq	%rax, %rdi
	call	_Unwind_Resume@PLT
.L242:
	endbr64
	movq	%rax, %rbx
	leaq	-96(%rbp), %rax
	movq	%rax, %rdi
	call	_ZNSt7__cxx1112basic_stringIcSt11char_traitsIcESaIcEED1Ev@PLT
	jmp	.L132
.L241:
	endbr64
	movq	%rax, %rbx
.L132:
	leaq	-181(%rbp), %rax
	movq	%rax, %rdi
	call	_ZNSaIcED1Ev@PLT
	movq	%rbx, %rax
	movq	%rax, %rdi
	call	_Unwind_Resume@PLT
.L244:
	endbr64
	movq	%rax, %rbx
	leaq	-96(%rbp), %rax
	movq	%rax, %rdi
	call	_ZNSt7__cxx1112basic_stringIcSt11char_traitsIcESaIcEED1Ev@PLT
	jmp	.L134
.L243:
	endbr64
	movq	%rax, %rbx
.L134:
	leaq	-181(%rbp), %rax
	movq	%rax, %rdi
	call	_ZNSaIcED1Ev@PLT
	movq	%rbx, %rax
	movq	%rax, %rdi
	call	_Unwind_Resume@PLT
.L246:
	endbr64
	movq	%rax, %rbx
	leaq	-96(%rbp), %rax
	movq	%rax, %rdi
	call	_ZNSt7__cxx1112basic_stringIcSt11char_traitsIcESaIcEED1Ev@PLT
	jmp	.L136
.L245:
	endbr64
	movq	%rax, %rbx
.L136:
	leaq	-181(%rbp), %rax
	movq	%rax, %rdi
	call	_ZNSaIcED1Ev@PLT
	movq	%rbx, %rax
	movq	%rax, %rdi
	call	_Unwind_Resume@PLT
.L248:
	endbr64
	movq	%rax, %rbx
	leaq	-96(%rbp), %rax
	movq	%rax, %rdi
	call	_ZNSt7__cxx1112basic_stringIcSt11char_traitsIcESaIcEED1Ev@PLT
	jmp	.L138
.L247:
	endbr64
	movq	%rax, %rbx
.L138:
	leaq	-181(%rbp), %rax
	movq	%rax, %rdi
	call	_ZNSaIcED1Ev@PLT
	movq	%rbx, %rax
	movq	%rax, %rdi
	call	_Unwind_Resume@PLT
.L250:
	endbr64
	movq	%rax, %rbx
	leaq	-96(%rbp), %rax
	movq	%rax, %rdi
	call	_ZNSt7__cxx1112basic_stringIcSt11char_traitsIcESaIcEED1Ev@PLT
	jmp	.L140
.L249:
	endbr64
	movq	%rax, %rbx
.L140:
	leaq	-181(%rbp), %rax
	movq	%rax, %rdi
	call	_ZNSaIcED1Ev@PLT
	movq	%rbx, %rax
	movq	%rax, %rdi
	call	_Unwind_Resume@PLT
.L252:
	endbr64
	movq	%rax, %rbx
	leaq	-96(%rbp), %rax
	movq	%rax, %rdi
	call	_ZNSt7__cxx1112basic_stringIcSt11char_traitsIcESaIcEED1Ev@PLT
	jmp	.L142
.L251:
	endbr64
	movq	%rax, %rbx
.L142:
	leaq	-181(%rbp), %rax
	movq	%rax, %rdi
	call	_ZNSaIcED1Ev@PLT
	movq	%rbx, %rax
	movq	%rax, %rdi
	call	_Unwind_Resume@PLT
.L254:
	endbr64
	movq	%rax, %rbx
	leaq	-96(%rbp), %rax
	movq	%rax, %rdi
	call	_ZNSt7__cxx1112basic_stringIcSt11char_traitsIcESaIcEED1Ev@PLT
	jmp	.L144
.L253:
	endbr64
	movq	%rax, %rbx
.L144:
	leaq	-181(%rbp), %rax
	movq	%rax, %rdi
	call	_ZNSaIcED1Ev@PLT
	movq	%rbx, %rax
	movq	%rax, %rdi
	call	_Unwind_Resume@PLT
.L256:
	endbr64
	movq	%rax, %rbx
	leaq	-96(%rbp), %rax
	movq	%rax, %rdi
	call	_ZNSt7__cxx1112basic_stringIcSt11char_traitsIcESaIcEED1Ev@PLT
	jmp	.L146
.L255:
	endbr64
	movq	%rax, %rbx
.L146:
	leaq	-181(%rbp), %rax
	movq	%rax, %rdi
	call	_ZNSaIcED1Ev@PLT
	movq	%rbx, %rax
	movq	%rax, %rdi
	call	_Unwind_Resume@PLT
.L258:
	endbr64
	movq	%rax, %rbx
	leaq	-96(%rbp), %rax
	movq	%rax, %rdi
	call	_ZNSt7__cxx1112basic_stringIcSt11char_traitsIcESaIcEED1Ev@PLT
	jmp	.L148
.L257:
	endbr64
	movq	%rax, %rbx
.L148:
	leaq	-181(%rbp), %rax
	movq	%rax, %rdi
	call	_ZNSaIcED1Ev@PLT
	movq	%rbx, %rax
	movq	%rax, %rdi
	call	_Unwind_Resume@PLT
.L260:
	endbr64
	movq	%rax, %rbx
	leaq	-96(%rbp), %rax
	movq	%rax, %rdi
	call	_ZNSt7__cxx1112basic_stringIcSt11char_traitsIcESaIcEED1Ev@PLT
	jmp	.L150
.L259:
	endbr64
	movq	%rax, %rbx
.L150:
	leaq	-181(%rbp), %rax
	movq	%rax, %rdi
	call	_ZNSaIcED1Ev@PLT
	movq	%rbx, %rax
	movq	%rax, %rdi
	call	_Unwind_Resume@PLT
.L262:
	endbr64
	movq	%rax, %rbx
	leaq	-96(%rbp), %rax
	movq	%rax, %rdi
	call	_ZNSt7__cxx1112basic_stringIcSt11char_traitsIcESaIcEED1Ev@PLT
	jmp	.L152
.L261:
	endbr64
	movq	%rax, %rbx
.L152:
	leaq	-181(%rbp), %rax
	movq	%rax, %rdi
	call	_ZNSaIcED1Ev@PLT
	movq	%rbx, %rax
	movq	%rax, %rdi
	call	_Unwind_Resume@PLT
.L264:
	endbr64
	movq	%rax, %rbx
	leaq	-96(%rbp), %rax
	movq	%rax, %rdi
	call	_ZNSt7__cxx1112basic_stringIcSt11char_traitsIcESaIcEED1Ev@PLT
	jmp	.L154
.L263:
	endbr64
	movq	%rax, %rbx
.L154:
	leaq	-181(%rbp), %rax
	movq	%rax, %rdi
	call	_ZNSaIcED1Ev@PLT
	movq	%rbx, %rax
	movq	%rax, %rdi
	call	_Unwind_Resume@PLT
.L266:
	endbr64
	movq	%rax, %rbx
	leaq	-96(%rbp), %rax
	movq	%rax, %rdi
	call	_ZNSt7__cxx1112basic_stringIcSt11char_traitsIcESaIcEED1Ev@PLT
	jmp	.L156
.L265:
	endbr64
	movq	%rax, %rbx
.L156:
	leaq	-181(%rbp), %rax
	movq	%rax, %rdi
	call	_ZNSaIcED1Ev@PLT
	movq	%rbx, %rax
	movq	%rax, %rdi
	call	_Unwind_Resume@PLT
.L268:
	endbr64
	movq	%rax, %rbx
	leaq	-96(%rbp), %rax
	movq	%rax, %rdi
	call	_ZNSt7__cxx1112basic_stringIcSt11char_traitsIcESaIcEED1Ev@PLT
	jmp	.L158
.L267:
	endbr64
	movq	%rax, %rbx
.L158:
	leaq	-181(%rbp), %rax
	movq	%rax, %rdi
	call	_ZNSaIcED1Ev@PLT
	movq	%rbx, %rax
	movq	%rax, %rdi
	call	_Unwind_Resume@PLT
.L270:
	endbr64
	movq	%rax, %rbx
	leaq	-96(%rbp), %rax
	movq	%rax, %rdi
	call	_ZNSt7__cxx1112basic_stringIcSt11char_traitsIcESaIcEED1Ev@PLT
	jmp	.L160
.L269:
	endbr64
	movq	%rax, %rbx
.L160:
	leaq	-181(%rbp), %rax
	movq	%rax, %rdi
	call	_ZNSaIcED1Ev@PLT
	movq	%rbx, %rax
	movq	%rax, %rdi
	call	_Unwind_Resume@PLT
.L272:
	endbr64
	movq	%rax, %rbx
	leaq	-96(%rbp), %rax
	movq	%rax, %rdi
	call	_ZNSt7__cxx1112basic_stringIcSt11char_traitsIcESaIcEED1Ev@PLT
	jmp	.L162
.L271:
	endbr64
	movq	%rax, %rbx
.L162:
	leaq	-181(%rbp), %rax
	movq	%rax, %rdi
	call	_ZNSaIcED1Ev@PLT
	movq	%rbx, %rax
	movq	%rax, %rdi
	call	_Unwind_Resume@PLT
.L274:
	endbr64
	movq	%rax, %rbx
	leaq	-96(%rbp), %rax
	movq	%rax, %rdi
	call	_ZNSt7__cxx1112basic_stringIcSt11char_traitsIcESaIcEED1Ev@PLT
	jmp	.L164
.L273:
	endbr64
	movq	%rax, %rbx
.L164:
	leaq	-181(%rbp), %rax
	movq	%rax, %rdi
	call	_ZNSaIcED1Ev@PLT
	movq	%rbx, %rax
	movq	%rax, %rdi
	call	_Unwind_Resume@PLT
.L276:
	endbr64
	movq	%rax, %rbx
	leaq	-96(%rbp), %rax
	movq	%rax, %rdi
	call	_ZNSt7__cxx1112basic_stringIcSt11char_traitsIcESaIcEED1Ev@PLT
	jmp	.L166
.L275:
	endbr64
	movq	%rax, %rbx
.L166:
	leaq	-181(%rbp), %rax
	movq	%rax, %rdi
	call	_ZNSaIcED1Ev@PLT
	movq	%rbx, %rax
	movq	%rax, %rdi
	call	_Unwind_Resume@PLT
.L278:
	endbr64
	movq	%rax, %rbx
	leaq	-96(%rbp), %rax
	movq	%rax, %rdi
	call	_ZNSt7__cxx1112basic_stringIcSt11char_traitsIcESaIcEED1Ev@PLT
	jmp	.L168
.L277:
	endbr64
	movq	%rax, %rbx
.L168:
	leaq	-181(%rbp), %rax
	movq	%rax, %rdi
	call	_ZNSaIcED1Ev@PLT
	movq	%rbx, %rax
	movq	%rax, %rdi
	call	_Unwind_Resume@PLT
.LEHE128:
.L279:
	call	__stack_chk_fail@PLT
.L169:
	addq	$192, %rsp
	popq	%rbx
	popq	%r12
	popq	%rbp
	.cfi_def_cfa 7, 8
	ret
	.cfi_endproc
.LFE3169:
	.section	.gcc_except_table._ZN13matplotlibcpp6detail12_interpreterC2Ev,"aG",@progbits,_ZN13matplotlibcpp6detail12_interpreterC5Ev,comdat
.LLSDA3169:
	.byte	0xff
	.byte	0xff
	.byte	0x1
	.uleb128 .LLSDACSE3169-.LLSDACSB3169
.LLSDACSB3169:
	.uleb128 .LEHB11-.LFB3169
	.uleb128 .LEHE11-.LEHB11
	.uleb128 0
	.uleb128 0
	.uleb128 .LEHB12-.LFB3169
	.uleb128 .LEHE12-.LEHB12
	.uleb128 .L170-.LFB3169
	.uleb128 0
	.uleb128 .LEHB13-.LFB3169
	.uleb128 .LEHE13-.LEHB13
	.uleb128 0
	.uleb128 0
	.uleb128 .LEHB14-.LFB3169
	.uleb128 .LEHE14-.LEHB14
	.uleb128 .L171-.LFB3169
	.uleb128 0
	.uleb128 .LEHB15-.LFB3169
	.uleb128 .LEHE15-.LEHB15
	.uleb128 0
	.uleb128 0
	.uleb128 .LEHB16-.LFB3169
	.uleb128 .LEHE16-.LEHB16
	.uleb128 .L172-.LFB3169
	.uleb128 0
	.uleb128 .LEHB17-.LFB3169
	.uleb128 .LEHE17-.LEHB17
	.uleb128 0
	.uleb128 0
	.uleb128 .LEHB18-.LFB3169
	.uleb128 .LEHE18-.LEHB18
	.uleb128 .L173-.LFB3169
	.uleb128 0
	.uleb128 .LEHB19-.LFB3169
	.uleb128 .LEHE19-.LEHB19
	.uleb128 0
	.uleb128 0
	.uleb128 .LEHB20-.LFB3169
	.uleb128 .LEHE20-.LEHB20
	.uleb128 .L174-.LFB3169
	.uleb128 0
	.uleb128 .LEHB21-.LFB3169
	.uleb128 .LEHE21-.LEHB21
	.uleb128 0
	.uleb128 0
	.uleb128 .LEHB22-.LFB3169
	.uleb128 .LEHE22-.LEHB22
	.uleb128 .L175-.LFB3169
	.uleb128 0
	.uleb128 .LEHB23-.LFB3169
	.uleb128 .LEHE23-.LEHB23
	.uleb128 .L176-.LFB3169
	.uleb128 0
	.uleb128 .LEHB24-.LFB3169
	.uleb128 .LEHE24-.LEHB24
	.uleb128 .L177-.LFB3169
	.uleb128 0
	.uleb128 .LEHB25-.LFB3169
	.uleb128 .LEHE25-.LEHB25
	.uleb128 .L178-.LFB3169
	.uleb128 0
	.uleb128 .LEHB26-.LFB3169
	.uleb128 .LEHE26-.LEHB26
	.uleb128 .L179-.LFB3169
	.uleb128 0
	.uleb128 .LEHB27-.LFB3169
	.uleb128 .LEHE27-.LEHB27
	.uleb128 .L180-.LFB3169
	.uleb128 0
	.uleb128 .LEHB28-.LFB3169
	.uleb128 .LEHE28-.LEHB28
	.uleb128 .L181-.LFB3169
	.uleb128 0
	.uleb128 .LEHB29-.LFB3169
	.uleb128 .LEHE29-.LEHB29
	.uleb128 .L182-.LFB3169
	.uleb128 0
	.uleb128 .LEHB30-.LFB3169
	.uleb128 .LEHE30-.LEHB30
	.uleb128 .L183-.LFB3169
	.uleb128 0
	.uleb128 .LEHB31-.LFB3169
	.uleb128 .LEHE31-.LEHB31
	.uleb128 .L184-.LFB3169
	.uleb128 0
	.uleb128 .LEHB32-.LFB3169
	.uleb128 .LEHE32-.LEHB32
	.uleb128 .L185-.LFB3169
	.uleb128 0
	.uleb128 .LEHB33-.LFB3169
	.uleb128 .LEHE33-.LEHB33
	.uleb128 .L186-.LFB3169
	.uleb128 0
	.uleb128 .LEHB34-.LFB3169
	.uleb128 .LEHE34-.LEHB34
	.uleb128 .L187-.LFB3169
	.uleb128 0
	.uleb128 .LEHB35-.LFB3169
	.uleb128 .LEHE35-.LEHB35
	.uleb128 .L188-.LFB3169
	.uleb128 0
	.uleb128 .LEHB36-.LFB3169
	.uleb128 .LEHE36-.LEHB36
	.uleb128 .L189-.LFB3169
	.uleb128 0
	.uleb128 .LEHB37-.LFB3169
	.uleb128 .LEHE37-.LEHB37
	.uleb128 .L190-.LFB3169
	.uleb128 0
	.uleb128 .LEHB38-.LFB3169
	.uleb128 .LEHE38-.LEHB38
	.uleb128 .L191-.LFB3169
	.uleb128 0
	.uleb128 .LEHB39-.LFB3169
	.uleb128 .LEHE39-.LEHB39
	.uleb128 .L192-.LFB3169
	.uleb128 0
	.uleb128 .LEHB40-.LFB3169
	.uleb128 .LEHE40-.LEHB40
	.uleb128 .L193-.LFB3169
	.uleb128 0
	.uleb128 .LEHB41-.LFB3169
	.uleb128 .LEHE41-.LEHB41
	.uleb128 .L194-.LFB3169
	.uleb128 0
	.uleb128 .LEHB42-.LFB3169
	.uleb128 .LEHE42-.LEHB42
	.uleb128 .L195-.LFB3169
	.uleb128 0
	.uleb128 .LEHB43-.LFB3169
	.uleb128 .LEHE43-.LEHB43
	.uleb128 .L196-.LFB3169
	.uleb128 0
	.uleb128 .LEHB44-.LFB3169
	.uleb128 .LEHE44-.LEHB44
	.uleb128 .L197-.LFB3169
	.uleb128 0
	.uleb128 .LEHB45-.LFB3169
	.uleb128 .LEHE45-.LEHB45
	.uleb128 .L198-.LFB3169
	.uleb128 0
	.uleb128 .LEHB46-.LFB3169
	.uleb128 .LEHE46-.LEHB46
	.uleb128 .L199-.LFB3169
	.uleb128 0
	.uleb128 .LEHB47-.LFB3169
	.uleb128 .LEHE47-.LEHB47
	.uleb128 .L200-.LFB3169
	.uleb128 0
	.uleb128 .LEHB48-.LFB3169
	.uleb128 .LEHE48-.LEHB48
	.uleb128 .L201-.LFB3169
	.uleb128 0
	.uleb128 .LEHB49-.LFB3169
	.uleb128 .LEHE49-.LEHB49
	.uleb128 .L202-.LFB3169
	.uleb128 0
	.uleb128 .LEHB50-.LFB3169
	.uleb128 .LEHE50-.LEHB50
	.uleb128 .L203-.LFB3169
	.uleb128 0
	.uleb128 .LEHB51-.LFB3169
	.uleb128 .LEHE51-.LEHB51
	.uleb128 .L204-.LFB3169
	.uleb128 0
	.uleb128 .LEHB52-.LFB3169
	.uleb128 .LEHE52-.LEHB52
	.uleb128 .L205-.LFB3169
	.uleb128 0
	.uleb128 .LEHB53-.LFB3169
	.uleb128 .LEHE53-.LEHB53
	.uleb128 .L206-.LFB3169
	.uleb128 0
	.uleb128 .LEHB54-.LFB3169
	.uleb128 .LEHE54-.LEHB54
	.uleb128 .L207-.LFB3169
	.uleb128 0
	.uleb128 .LEHB55-.LFB3169
	.uleb128 .LEHE55-.LEHB55
	.uleb128 .L208-.LFB3169
	.uleb128 0
	.uleb128 .LEHB56-.LFB3169
	.uleb128 .LEHE56-.LEHB56
	.uleb128 .L209-.LFB3169
	.uleb128 0
	.uleb128 .LEHB57-.LFB3169
	.uleb128 .LEHE57-.LEHB57
	.uleb128 .L210-.LFB3169
	.uleb128 0
	.uleb128 .LEHB58-.LFB3169
	.uleb128 .LEHE58-.LEHB58
	.uleb128 .L211-.LFB3169
	.uleb128 0
	.uleb128 .LEHB59-.LFB3169
	.uleb128 .LEHE59-.LEHB59
	.uleb128 .L212-.LFB3169
	.uleb128 0
	.uleb128 .LEHB60-.LFB3169
	.uleb128 .LEHE60-.LEHB60
	.uleb128 .L213-.LFB3169
	.uleb128 0
	.uleb128 .LEHB61-.LFB3169
	.uleb128 .LEHE61-.LEHB61
	.uleb128 .L214-.LFB3169
	.uleb128 0
	.uleb128 .LEHB62-.LFB3169
	.uleb128 .LEHE62-.LEHB62
	.uleb128 .L215-.LFB3169
	.uleb128 0
	.uleb128 .LEHB63-.LFB3169
	.uleb128 .LEHE63-.LEHB63
	.uleb128 .L216-.LFB3169
	.uleb128 0
	.uleb128 .LEHB64-.LFB3169
	.uleb128 .LEHE64-.LEHB64
	.uleb128 .L217-.LFB3169
	.uleb128 0
	.uleb128 .LEHB65-.LFB3169
	.uleb128 .LEHE65-.LEHB65
	.uleb128 .L218-.LFB3169
	.uleb128 0
	.uleb128 .LEHB66-.LFB3169
	.uleb128 .LEHE66-.LEHB66
	.uleb128 .L219-.LFB3169
	.uleb128 0
	.uleb128 .LEHB67-.LFB3169
	.uleb128 .LEHE67-.LEHB67
	.uleb128 .L220-.LFB3169
	.uleb128 0
	.uleb128 .LEHB68-.LFB3169
	.uleb128 .LEHE68-.LEHB68
	.uleb128 .L221-.LFB3169
	.uleb128 0
	.uleb128 .LEHB69-.LFB3169
	.uleb128 .LEHE69-.LEHB69
	.uleb128 .L222-.LFB3169
	.uleb128 0
	.uleb128 .LEHB70-.LFB3169
	.uleb128 .LEHE70-.LEHB70
	.uleb128 .L223-.LFB3169
	.uleb128 0
	.uleb128 .LEHB71-.LFB3169
	.uleb128 .LEHE71-.LEHB71
	.uleb128 .L224-.LFB3169
	.uleb128 0
	.uleb128 .LEHB72-.LFB3169
	.uleb128 .LEHE72-.LEHB72
	.uleb128 .L225-.LFB3169
	.uleb128 0
	.uleb128 .LEHB73-.LFB3169
	.uleb128 .LEHE73-.LEHB73
	.uleb128 .L226-.LFB3169
	.uleb128 0
	.uleb128 .LEHB74-.LFB3169
	.uleb128 .LEHE74-.LEHB74
	.uleb128 .L227-.LFB3169
	.uleb128 0
	.uleb128 .LEHB75-.LFB3169
	.uleb128 .LEHE75-.LEHB75
	.uleb128 .L228-.LFB3169
	.uleb128 0
	.uleb128 .LEHB76-.LFB3169
	.uleb128 .LEHE76-.LEHB76
	.uleb128 .L229-.LFB3169
	.uleb128 0
	.uleb128 .LEHB77-.LFB3169
	.uleb128 .LEHE77-.LEHB77
	.uleb128 .L230-.LFB3169
	.uleb128 0
	.uleb128 .LEHB78-.LFB3169
	.uleb128 .LEHE78-.LEHB78
	.uleb128 .L231-.LFB3169
	.uleb128 0
	.uleb128 .LEHB79-.LFB3169
	.uleb128 .LEHE79-.LEHB79
	.uleb128 .L232-.LFB3169
	.uleb128 0
	.uleb128 .LEHB80-.LFB3169
	.uleb128 .LEHE80-.LEHB80
	.uleb128 .L233-.LFB3169
	.uleb128 0
	.uleb128 .LEHB81-.LFB3169
	.uleb128 .LEHE81-.LEHB81
	.uleb128 .L234-.LFB3169
	.uleb128 0
	.uleb128 .LEHB82-.LFB3169
	.uleb128 .LEHE82-.LEHB82
	.uleb128 .L235-.LFB3169
	.uleb128 0
	.uleb128 .LEHB83-.LFB3169
	.uleb128 .LEHE83-.LEHB83
	.uleb128 .L236-.LFB3169
	.uleb128 0
	.uleb128 .LEHB84-.LFB3169
	.uleb128 .LEHE84-.LEHB84
	.uleb128 .L237-.LFB3169
	.uleb128 0
	.uleb128 .LEHB85-.LFB3169
	.uleb128 .LEHE85-.LEHB85
	.uleb128 .L238-.LFB3169
	.uleb128 0
	.uleb128 .LEHB86-.LFB3169
	.uleb128 .LEHE86-.LEHB86
	.uleb128 .L239-.LFB3169
	.uleb128 0
	.uleb128 .LEHB87-.LFB3169
	.uleb128 .LEHE87-.LEHB87
	.uleb128 .L240-.LFB3169
	.uleb128 0
	.uleb128 .LEHB88-.LFB3169
	.uleb128 .LEHE88-.LEHB88
	.uleb128 .L241-.LFB3169
	.uleb128 0
	.uleb128 .LEHB89-.LFB3169
	.uleb128 .LEHE89-.LEHB89
	.uleb128 .L242-.LFB3169
	.uleb128 0
	.uleb128 .LEHB90-.LFB3169
	.uleb128 .LEHE90-.LEHB90
	.uleb128 .L243-.LFB3169
	.uleb128 0
	.uleb128 .LEHB91-.LFB3169
	.uleb128 .LEHE91-.LEHB91
	.uleb128 .L244-.LFB3169
	.uleb128 0
	.uleb128 .LEHB92-.LFB3169
	.uleb128 .LEHE92-.LEHB92
	.uleb128 .L245-.LFB3169
	.uleb128 0
	.uleb128 .LEHB93-.LFB3169
	.uleb128 .LEHE93-.LEHB93
	.uleb128 .L246-.LFB3169
	.uleb128 0
	.uleb128 .LEHB94-.LFB3169
	.uleb128 .LEHE94-.LEHB94
	.uleb128 .L247-.LFB3169
	.uleb128 0
	.uleb128 .LEHB95-.LFB3169
	.uleb128 .LEHE95-.LEHB95
	.uleb128 .L248-.LFB3169
	.uleb128 0
	.uleb128 .LEHB96-.LFB3169
	.uleb128 .LEHE96-.LEHB96
	.uleb128 .L249-.LFB3169
	.uleb128 0
	.uleb128 .LEHB97-.LFB3169
	.uleb128 .LEHE97-.LEHB97
	.uleb128 .L250-.LFB3169
	.uleb128 0
	.uleb128 .LEHB98-.LFB3169
	.uleb128 .LEHE98-.LEHB98
	.uleb128 .L251-.LFB3169
	.uleb128 0
	.uleb128 .LEHB99-.LFB3169
	.uleb128 .LEHE99-.LEHB99
	.uleb128 .L252-.LFB3169
	.uleb128 0
	.uleb128 .LEHB100-.LFB3169
	.uleb128 .LEHE100-.LEHB100
	.uleb128 .L253-.LFB3169
	.uleb128 0
	.uleb128 .LEHB101-.LFB3169
	.uleb128 .LEHE101-.LEHB101
	.uleb128 .L254-.LFB3169
	.uleb128 0
	.uleb128 .LEHB102-.LFB3169
	.uleb128 .LEHE102-.LEHB102
	.uleb128 .L255-.LFB3169
	.uleb128 0
	.uleb128 .LEHB103-.LFB3169
	.uleb128 .LEHE103-.LEHB103
	.uleb128 .L256-.LFB3169
	.uleb128 0
	.uleb128 .LEHB104-.LFB3169
	.uleb128 .LEHE104-.LEHB104
	.uleb128 .L257-.LFB3169
	.uleb128 0
	.uleb128 .LEHB105-.LFB3169
	.uleb128 .LEHE105-.LEHB105
	.uleb128 .L258-.LFB3169
	.uleb128 0
	.uleb128 .LEHB106-.LFB3169
	.uleb128 .LEHE106-.LEHB106
	.uleb128 .L259-.LFB3169
	.uleb128 0
	.uleb128 .LEHB107-.LFB3169
	.uleb128 .LEHE107-.LEHB107
	.uleb128 .L260-.LFB3169
	.uleb128 0
	.uleb128 .LEHB108-.LFB3169
	.uleb128 .LEHE108-.LEHB108
	.uleb128 .L261-.LFB3169
	.uleb128 0
	.uleb128 .LEHB109-.LFB3169
	.uleb128 .LEHE109-.LEHB109
	.uleb128 .L262-.LFB3169
	.uleb128 0
	.uleb128 .LEHB110-.LFB3169
	.uleb128 .LEHE110-.LEHB110
	.uleb128 .L263-.LFB3169
	.uleb128 0
	.uleb128 .LEHB111-.LFB3169
	.uleb128 .LEHE111-.LEHB111
	.uleb128 .L264-.LFB3169
	.uleb128 0
	.uleb128 .LEHB112-.LFB3169
	.uleb128 .LEHE112-.LEHB112
	.uleb128 .L265-.LFB3169
	.uleb128 0
	.uleb128 .LEHB113-.LFB3169
	.uleb128 .LEHE113-.LEHB113
	.uleb128 .L266-.LFB3169
	.uleb128 0
	.uleb128 .LEHB114-.LFB3169
	.uleb128 .LEHE114-.LEHB114
	.uleb128 .L267-.LFB3169
	.uleb128 0
	.uleb128 .LEHB115-.LFB3169
	.uleb128 .LEHE115-.LEHB115
	.uleb128 .L268-.LFB3169
	.uleb128 0
	.uleb128 .LEHB116-.LFB3169
	.uleb128 .LEHE116-.LEHB116
	.uleb128 .L269-.LFB3169
	.uleb128 0
	.uleb128 .LEHB117-.LFB3169
	.uleb128 .LEHE117-.LEHB117
	.uleb128 .L270-.LFB3169
	.uleb128 0
	.uleb128 .LEHB118-.LFB3169
	.uleb128 .LEHE118-.LEHB118
	.uleb128 .L271-.LFB3169
	.uleb128 0
	.uleb128 .LEHB119-.LFB3169
	.uleb128 .LEHE119-.LEHB119
	.uleb128 .L272-.LFB3169
	.uleb128 0
	.uleb128 .LEHB120-.LFB3169
	.uleb128 .LEHE120-.LEHB120
	.uleb128 .L273-.LFB3169
	.uleb128 0
	.uleb128 .LEHB121-.LFB3169
	.uleb128 .LEHE121-.LEHB121
	.uleb128 .L274-.LFB3169
	.uleb128 0
	.uleb128 .LEHB122-.LFB3169
	.uleb128 .LEHE122-.LEHB122
	.uleb128 0
	.uleb128 0
	.uleb128 .LEHB123-.LFB3169
	.uleb128 .LEHE123-.LEHB123
	.uleb128 .L275-.LFB3169
	.uleb128 0
	.uleb128 .LEHB124-.LFB3169
	.uleb128 .LEHE124-.LEHB124
	.uleb128 .L276-.LFB3169
	.uleb128 0
	.uleb128 .LEHB125-.LFB3169
	.uleb128 .LEHE125-.LEHB125
	.uleb128 0
	.uleb128 0
	.uleb128 .LEHB126-.LFB3169
	.uleb128 .LEHE126-.LEHB126
	.uleb128 .L277-.LFB3169
	.uleb128 0
	.uleb128 .LEHB127-.LFB3169
	.uleb128 .LEHE127-.LEHB127
	.uleb128 .L278-.LFB3169
	.uleb128 0
	.uleb128 .LEHB128-.LFB3169
	.uleb128 .LEHE128-.LEHB128
	.uleb128 0
	.uleb128 0
.LLSDACSE3169:
	.section	.text._ZN13matplotlibcpp6detail12_interpreterC2Ev,"axG",@progbits,_ZN13matplotlibcpp6detail12_interpreterC5Ev,comdat
	.size	_ZN13matplotlibcpp6detail12_interpreterC2Ev, .-_ZN13matplotlibcpp6detail12_interpreterC2Ev
	.weak	_ZN13matplotlibcpp6detail12_interpreterC1Ev
	.set	_ZN13matplotlibcpp6detail12_interpreterC1Ev,_ZN13matplotlibcpp6detail12_interpreterC2Ev
	.section	.text._ZN13matplotlibcpp6detail12_interpreterD2Ev,"axG",@progbits,_ZN13matplotlibcpp6detail12_interpreterD5Ev,comdat
	.align 2
	.weak	_ZN13matplotlibcpp6detail12_interpreterD2Ev
	.type	_ZN13matplotlibcpp6detail12_interpreterD2Ev, @function
_ZN13matplotlibcpp6detail12_interpreterD2Ev:
.LFB3172:
	.cfi_startproc
	.cfi_personality 0x9b,DW.ref.__gxx_personality_v0
	.cfi_lsda 0x1b,.LLSDA3172
	endbr64
	pushq	%rbp
	.cfi_def_cfa_offset 16
	.cfi_offset 6, -16
	movq	%rsp, %rbp
	.cfi_def_cfa_register 6
	subq	$16, %rsp
	movq	%rdi, -8(%rbp)
	call	Py_Finalize@PLT
	nop
	leave
	.cfi_def_cfa 7, 8
	ret
	.cfi_endproc
.LFE3172:
	.section	.gcc_except_table._ZN13matplotlibcpp6detail12_interpreterD2Ev,"aG",@progbits,_ZN13matplotlibcpp6detail12_interpreterD5Ev,comdat
.LLSDA3172:
	.byte	0xff
	.byte	0xff
	.byte	0x1
	.uleb128 .LLSDACSE3172-.LLSDACSB3172
.LLSDACSB3172:
.LLSDACSE3172:
	.section	.text._ZN13matplotlibcpp6detail12_interpreterD2Ev,"axG",@progbits,_ZN13matplotlibcpp6detail12_interpreterD5Ev,comdat
	.size	_ZN13matplotlibcpp6detail12_interpreterD2Ev, .-_ZN13matplotlibcpp6detail12_interpreterD2Ev
	.weak	_ZN13matplotlibcpp6detail12_interpreterD1Ev
	.set	_ZN13matplotlibcpp6detail12_interpreterD1Ev,_ZN13matplotlibcpp6detail12_interpreterD2Ev
	.section	.rodata
.LC79:
	.string	"Call to title() failed."
	.section	.text._ZN13matplotlibcpp4axisERKNSt7__cxx1112basic_stringIcSt11char_traitsIcESaIcEEE,"axG",@progbits,_ZN13matplotlibcpp4axisERKNSt7__cxx1112basic_stringIcSt11char_traitsIcESaIcEEE,comdat
	.weak	_ZN13matplotlibcpp4axisERKNSt7__cxx1112basic_stringIcSt11char_traitsIcESaIcEEE
	.type	_ZN13matplotlibcpp4axisERKNSt7__cxx1112basic_stringIcSt11char_traitsIcESaIcEEE, @function
_ZN13matplotlibcpp4axisERKNSt7__cxx1112basic_stringIcSt11char_traitsIcESaIcEEE:
.LFB3251:
	.cfi_startproc
	.cfi_personality 0x9b,DW.ref.__gxx_personality_v0
	.cfi_lsda 0x1b,.LLSDA3251
	endbr64
	pushq	%rbp
	.cfi_def_cfa_offset 16
	.cfi_offset 6, -16
	movq	%rsp, %rbp
	.cfi_def_cfa_register 6
	pushq	%r12
	pushq	%rbx
	subq	$48, %rsp
	.cfi_offset 12, -24
	.cfi_offset 3, -32
	movq	%rdi, -56(%rbp)
.LEHB129:
	call	_ZN13matplotlibcpp6detail12_interpreter3getEv
	movq	-56(%rbp), %rax
	movq	%rax, %rdi
	call	_ZNKSt7__cxx1112basic_stringIcSt11char_traitsIcESaIcEE5c_strEv@PLT
	movq	%rax, %rdi
	call	PyUnicode_FromString@PLT
	movq	%rax, -40(%rbp)
	movl	$1, %edi
	call	PyTuple_New@PLT
	movq	%rax, -32(%rbp)
	movq	-40(%rbp), %rdx
	movq	-32(%rbp), %rax
	movl	$0, %esi
	movq	%rax, %rdi
	call	PyTuple_SetItem@PLT
	call	_ZN13matplotlibcpp6detail12_interpreter3getEv
	movq	224(%rax), %rax
	movq	-32(%rbp), %rdx
	movq	%rdx, %rsi
	movq	%rax, %rdi
	call	PyObject_CallObject@PLT
.LEHE129:
	movq	%rax, -24(%rbp)
	cmpq	$0, -24(%rbp)
	jne	.L282
	movl	$16, %edi
	call	__cxa_allocate_exception@PLT
	movq	%rax, %rbx
	leaq	.LC79(%rip), %rax
	movq	%rax, %rsi
	movq	%rbx, %rdi
.LEHB130:
	call	_ZNSt13runtime_errorC1EPKc@PLT
.LEHE130:
	movq	_ZNSt13runtime_errorD1Ev@GOTPCREL(%rip), %rax
	movq	%rax, %rdx
	leaq	_ZTISt13runtime_error(%rip), %rax
	movq	%rax, %rsi
	movq	%rbx, %rdi
.LEHB131:
	call	__cxa_throw@PLT
.L282:
	movq	-32(%rbp), %rax
	movq	%rax, %rdi
	call	_Py_DECREF
	movq	-24(%rbp), %rax
	movq	%rax, %rdi
	call	_Py_DECREF
	jmp	.L285
.L284:
	endbr64
	movq	%rax, %r12
	movq	%rbx, %rdi
	call	__cxa_free_exception@PLT
	movq	%r12, %rax
	movq	%rax, %rdi
	call	_Unwind_Resume@PLT
.LEHE131:
.L285:
	addq	$48, %rsp
	popq	%rbx
	popq	%r12
	popq	%rbp
	.cfi_def_cfa 7, 8
	ret
	.cfi_endproc
.LFE3251:
	.section	.gcc_except_table._ZN13matplotlibcpp4axisERKNSt7__cxx1112basic_stringIcSt11char_traitsIcESaIcEEE,"aG",@progbits,_ZN13matplotlibcpp4axisERKNSt7__cxx1112basic_stringIcSt11char_traitsIcESaIcEEE,comdat
.LLSDA3251:
	.byte	0xff
	.byte	0xff
	.byte	0x1
	.uleb128 .LLSDACSE3251-.LLSDACSB3251
.LLSDACSB3251:
	.uleb128 .LEHB129-.LFB3251
	.uleb128 .LEHE129-.LEHB129
	.uleb128 0
	.uleb128 0
	.uleb128 .LEHB130-.LFB3251
	.uleb128 .LEHE130-.LEHB130
	.uleb128 .L284-.LFB3251
	.uleb128 0
	.uleb128 .LEHB131-.LFB3251
	.uleb128 .LEHE131-.LEHB131
	.uleb128 0
	.uleb128 0
.LLSDACSE3251:
	.section	.text._ZN13matplotlibcpp4axisERKNSt7__cxx1112basic_stringIcSt11char_traitsIcESaIcEEE,"axG",@progbits,_ZN13matplotlibcpp4axisERKNSt7__cxx1112basic_stringIcSt11char_traitsIcESaIcEEE,comdat
	.size	_ZN13matplotlibcpp4axisERKNSt7__cxx1112basic_stringIcSt11char_traitsIcESaIcEEE, .-_ZN13matplotlibcpp4axisERKNSt7__cxx1112basic_stringIcSt11char_traitsIcESaIcEEE
	.section	.text._ZNSt8_Rb_treeINSt7__cxx1112basic_stringIcSt11char_traitsIcESaIcEEESt4pairIKS5_S5_ESt10_Select1stIS8_ESt4lessIS5_ESaIS8_EE13_Rb_tree_implISC_Lb1EED2Ev,"axG",@progbits,_ZNSt8_Rb_treeINSt7__cxx1112basic_stringIcSt11char_traitsIcESaIcEEESt4pairIKS5_S5_ESt10_Select1stIS8_ESt4lessIS5_ESaIS8_EE13_Rb_tree_implISC_Lb1EED5Ev,comdat
	.align 2
	.weak	_ZNSt8_Rb_treeINSt7__cxx1112basic_stringIcSt11char_traitsIcESaIcEEESt4pairIKS5_S5_ESt10_Select1stIS8_ESt4lessIS5_ESaIS8_EE13_Rb_tree_implISC_Lb1EED2Ev
	.type	_ZNSt8_Rb_treeINSt7__cxx1112basic_stringIcSt11char_traitsIcESaIcEEESt4pairIKS5_S5_ESt10_Select1stIS8_ESt4lessIS5_ESaIS8_EE13_Rb_tree_implISC_Lb1EED2Ev, @function
_ZNSt8_Rb_treeINSt7__cxx1112basic_stringIcSt11char_traitsIcESaIcEEESt4pairIKS5_S5_ESt10_Select1stIS8_ESt4lessIS5_ESaIS8_EE13_Rb_tree_implISC_Lb1EED2Ev:
.LFB3255:
	.cfi_startproc
	endbr64
	pushq	%rbp
	.cfi_def_cfa_offset 16
	.cfi_offset 6, -16
	movq	%rsp, %rbp
	.cfi_def_cfa_register 6
	subq	$16, %rsp
	movq	%rdi, -8(%rbp)
	movq	-8(%rbp), %rax
	movq	%rax, %rdi
	call	_ZNSaISt13_Rb_tree_nodeISt4pairIKNSt7__cxx1112basic_stringIcSt11char_traitsIcESaIcEEES6_EEED2Ev
	nop
	leave
	.cfi_def_cfa 7, 8
	ret
	.cfi_endproc
.LFE3255:
	.size	_ZNSt8_Rb_treeINSt7__cxx1112basic_stringIcSt11char_traitsIcESaIcEEESt4pairIKS5_S5_ESt10_Select1stIS8_ESt4lessIS5_ESaIS8_EE13_Rb_tree_implISC_Lb1EED2Ev, .-_ZNSt8_Rb_treeINSt7__cxx1112basic_stringIcSt11char_traitsIcESaIcEEESt4pairIKS5_S5_ESt10_Select1stIS8_ESt4lessIS5_ESaIS8_EE13_Rb_tree_implISC_Lb1EED2Ev
	.weak	_ZNSt8_Rb_treeINSt7__cxx1112basic_stringIcSt11char_traitsIcESaIcEEESt4pairIKS5_S5_ESt10_Select1stIS8_ESt4lessIS5_ESaIS8_EE13_Rb_tree_implISC_Lb1EED1Ev
	.set	_ZNSt8_Rb_treeINSt7__cxx1112basic_stringIcSt11char_traitsIcESaIcEEESt4pairIKS5_S5_ESt10_Select1stIS8_ESt4lessIS5_ESaIS8_EE13_Rb_tree_implISC_Lb1EED1Ev,_ZNSt8_Rb_treeINSt7__cxx1112basic_stringIcSt11char_traitsIcESaIcEEESt4pairIKS5_S5_ESt10_Select1stIS8_ESt4lessIS5_ESaIS8_EE13_Rb_tree_implISC_Lb1EED2Ev
	.section	.text._ZNSt3mapINSt7__cxx1112basic_stringIcSt11char_traitsIcESaIcEEES5_St4lessIS5_ESaISt4pairIKS5_S5_EEED2Ev,"axG",@progbits,_ZNSt3mapINSt7__cxx1112basic_stringIcSt11char_traitsIcESaIcEEES5_St4lessIS5_ESaISt4pairIKS5_S5_EEED5Ev,comdat
	.align 2
	.weak	_ZNSt3mapINSt7__cxx1112basic_stringIcSt11char_traitsIcESaIcEEES5_St4lessIS5_ESaISt4pairIKS5_S5_EEED2Ev
	.type	_ZNSt3mapINSt7__cxx1112basic_stringIcSt11char_traitsIcESaIcEEES5_St4lessIS5_ESaISt4pairIKS5_S5_EEED2Ev, @function
_ZNSt3mapINSt7__cxx1112basic_stringIcSt11char_traitsIcESaIcEEES5_St4lessIS5_ESaISt4pairIKS5_S5_EEED2Ev:
.LFB3262:
	.cfi_startproc
	endbr64
	pushq	%rbp
	.cfi_def_cfa_offset 16
	.cfi_offset 6, -16
	movq	%rsp, %rbp
	.cfi_def_cfa_register 6
	subq	$16, %rsp
	movq	%rdi, -8(%rbp)
	movq	-8(%rbp), %rax
	movq	%rax, %rdi
	call	_ZNSt8_Rb_treeINSt7__cxx1112basic_stringIcSt11char_traitsIcESaIcEEESt4pairIKS5_S5_ESt10_Select1stIS8_ESt4lessIS5_ESaIS8_EED1Ev
	nop
	leave
	.cfi_def_cfa 7, 8
	ret
	.cfi_endproc
.LFE3262:
	.size	_ZNSt3mapINSt7__cxx1112basic_stringIcSt11char_traitsIcESaIcEEES5_St4lessIS5_ESaISt4pairIKS5_S5_EEED2Ev, .-_ZNSt3mapINSt7__cxx1112basic_stringIcSt11char_traitsIcESaIcEEES5_St4lessIS5_ESaISt4pairIKS5_S5_EEED2Ev
	.weak	_ZNSt3mapINSt7__cxx1112basic_stringIcSt11char_traitsIcESaIcEEES5_St4lessIS5_ESaISt4pairIKS5_S5_EEED1Ev
	.set	_ZNSt3mapINSt7__cxx1112basic_stringIcSt11char_traitsIcESaIcEEES5_St4lessIS5_ESaISt4pairIKS5_S5_EEED1Ev,_ZNSt3mapINSt7__cxx1112basic_stringIcSt11char_traitsIcESaIcEEES5_St4lessIS5_ESaISt4pairIKS5_S5_EEED2Ev
	.section	.text._ZN13matplotlibcpp4plotERKSt6vectorIdSaIdEES4_RKSt3mapINSt7__cxx1112basic_stringIcSt11char_traitsIcESaIcEEESB_St4lessISB_ESaISt4pairIKSB_SB_EEE,"axG",@progbits,_ZN13matplotlibcpp4plotERKSt6vectorIdSaIdEES4_RKSt3mapINSt7__cxx1112basic_stringIcSt11char_traitsIcESaIcEEESB_St4lessISB_ESaISt4pairIKSB_SB_EEE,comdat
	.weak	_ZN13matplotlibcpp4plotERKSt6vectorIdSaIdEES4_RKSt3mapINSt7__cxx1112basic_stringIcSt11char_traitsIcESaIcEEESB_St4lessISB_ESaISt4pairIKSB_SB_EEE
	.type	_ZN13matplotlibcpp4plotERKSt6vectorIdSaIdEES4_RKSt3mapINSt7__cxx1112basic_stringIcSt11char_traitsIcESaIcEEESB_St4lessISB_ESaISt4pairIKSB_SB_EEE, @function
_ZN13matplotlibcpp4plotERKSt6vectorIdSaIdEES4_RKSt3mapINSt7__cxx1112basic_stringIcSt11char_traitsIcESaIcEEESB_St4lessISB_ESaISt4pairIKSB_SB_EEE:
.LFB3305:
	.cfi_startproc
	endbr64
	pushq	%rbp
	.cfi_def_cfa_offset 16
	.cfi_offset 6, -16
	movq	%rsp, %rbp
	.cfi_def_cfa_register 6
	subq	$32, %rsp
	movq	%rdi, -8(%rbp)
	movq	%rsi, -16(%rbp)
	movq	%rdx, -24(%rbp)
	movq	-24(%rbp), %rdx
	movq	-16(%rbp), %rcx
	movq	-8(%rbp), %rax
	movq	%rcx, %rsi
	movq	%rax, %rdi
	call	_ZN13matplotlibcpp4plotIdEEbRKSt6vectorIT_SaIS2_EES6_RKSt3mapINSt7__cxx1112basic_stringIcSt11char_traitsIcESaIcEEESD_St4lessISD_ESaISt4pairIKSD_SD_EEE
	leave
	.cfi_def_cfa 7, 8
	ret
	.cfi_endproc
.LFE3305:
	.size	_ZN13matplotlibcpp4plotERKSt6vectorIdSaIdEES4_RKSt3mapINSt7__cxx1112basic_stringIcSt11char_traitsIcESaIcEEESB_St4lessISB_ESaISt4pairIKSB_SB_EEE, .-_ZN13matplotlibcpp4plotERKSt6vectorIdSaIdEES4_RKSt3mapINSt7__cxx1112basic_stringIcSt11char_traitsIcESaIcEEESB_St4lessISB_ESaISt4pairIKSB_SB_EEE
	.section	.text._ZNSt12_Vector_baseIdSaIdEE12_Vector_implD2Ev,"axG",@progbits,_ZNSt12_Vector_baseIdSaIdEE12_Vector_implD5Ev,comdat
	.align 2
	.weak	_ZNSt12_Vector_baseIdSaIdEE12_Vector_implD2Ev
	.type	_ZNSt12_Vector_baseIdSaIdEE12_Vector_implD2Ev, @function
_ZNSt12_Vector_baseIdSaIdEE12_Vector_implD2Ev:
.LFB3312:
	.cfi_startproc
	endbr64
	pushq	%rbp
	.cfi_def_cfa_offset 16
	.cfi_offset 6, -16
	movq	%rsp, %rbp
	.cfi_def_cfa_register 6
	subq	$16, %rsp
	movq	%rdi, -8(%rbp)
	movq	-8(%rbp), %rax
	movq	%rax, %rdi
	call	_ZNSaIdED2Ev
	nop
	leave
	.cfi_def_cfa 7, 8
	ret
	.cfi_endproc
.LFE3312:
	.size	_ZNSt12_Vector_baseIdSaIdEE12_Vector_implD2Ev, .-_ZNSt12_Vector_baseIdSaIdEE12_Vector_implD2Ev
	.weak	_ZNSt12_Vector_baseIdSaIdEE12_Vector_implD1Ev
	.set	_ZNSt12_Vector_baseIdSaIdEE12_Vector_implD1Ev,_ZNSt12_Vector_baseIdSaIdEE12_Vector_implD2Ev
	.section	.text._ZNSt12_Vector_baseIdSaIdEEC2Ev,"axG",@progbits,_ZNSt12_Vector_baseIdSaIdEEC5Ev,comdat
	.align 2
	.weak	_ZNSt12_Vector_baseIdSaIdEEC2Ev
	.type	_ZNSt12_Vector_baseIdSaIdEEC2Ev, @function
_ZNSt12_Vector_baseIdSaIdEEC2Ev:
.LFB3314:
	.cfi_startproc
	endbr64
	pushq	%rbp
	.cfi_def_cfa_offset 16
	.cfi_offset 6, -16
	movq	%rsp, %rbp
	.cfi_def_cfa_register 6
	subq	$16, %rsp
	movq	%rdi, -8(%rbp)
	movq	-8(%rbp), %rax
	movq	%rax, %rdi
	call	_ZNSt12_Vector_baseIdSaIdEE12_Vector_implC1Ev
	nop
	leave
	.cfi_def_cfa 7, 8
	ret
	.cfi_endproc
.LFE3314:
	.size	_ZNSt12_Vector_baseIdSaIdEEC2Ev, .-_ZNSt12_Vector_baseIdSaIdEEC2Ev
	.weak	_ZNSt12_Vector_baseIdSaIdEEC1Ev
	.set	_ZNSt12_Vector_baseIdSaIdEEC1Ev,_ZNSt12_Vector_baseIdSaIdEEC2Ev
	.section	.text._ZNSt6vectorIdSaIdEEC2Ev,"axG",@progbits,_ZNSt6vectorIdSaIdEEC5Ev,comdat
	.align 2
	.weak	_ZNSt6vectorIdSaIdEEC2Ev
	.type	_ZNSt6vectorIdSaIdEEC2Ev, @function
_ZNSt6vectorIdSaIdEEC2Ev:
.LFB3316:
	.cfi_startproc
	endbr64
	pushq	%rbp
	.cfi_def_cfa_offset 16
	.cfi_offset 6, -16
	movq	%rsp, %rbp
	.cfi_def_cfa_register 6
	subq	$16, %rsp
	movq	%rdi, -8(%rbp)
	movq	-8(%rbp), %rax
	movq	%rax, %rdi
	call	_ZNSt12_Vector_baseIdSaIdEEC2Ev
	nop
	leave
	.cfi_def_cfa 7, 8
	ret
	.cfi_endproc
.LFE3316:
	.size	_ZNSt6vectorIdSaIdEEC2Ev, .-_ZNSt6vectorIdSaIdEEC2Ev
	.weak	_ZNSt6vectorIdSaIdEEC1Ev
	.set	_ZNSt6vectorIdSaIdEEC1Ev,_ZNSt6vectorIdSaIdEEC2Ev
	.section	.text._ZNSt12_Vector_baseISt6vectorIdSaIdEESaIS2_EE12_Vector_implD2Ev,"axG",@progbits,_ZNSt12_Vector_baseISt6vectorIdSaIdEESaIS2_EE12_Vector_implD5Ev,comdat
	.align 2
	.weak	_ZNSt12_Vector_baseISt6vectorIdSaIdEESaIS2_EE12_Vector_implD2Ev
	.type	_ZNSt12_Vector_baseISt6vectorIdSaIdEESaIS2_EE12_Vector_implD2Ev, @function
_ZNSt12_Vector_baseISt6vectorIdSaIdEESaIS2_EE12_Vector_implD2Ev:
.LFB3332:
	.cfi_startproc
	endbr64
	pushq	%rbp
	.cfi_def_cfa_offset 16
	.cfi_offset 6, -16
	movq	%rsp, %rbp
	.cfi_def_cfa_register 6
	subq	$16, %rsp
	movq	%rdi, -8(%rbp)
	movq	-8(%rbp), %rax
	movq	%rax, %rdi
	call	_ZNSaISt6vectorIdSaIdEEED2Ev
	nop
	leave
	.cfi_def_cfa 7, 8
	ret
	.cfi_endproc
.LFE3332:
	.size	_ZNSt12_Vector_baseISt6vectorIdSaIdEESaIS2_EE12_Vector_implD2Ev, .-_ZNSt12_Vector_baseISt6vectorIdSaIdEESaIS2_EE12_Vector_implD2Ev
	.weak	_ZNSt12_Vector_baseISt6vectorIdSaIdEESaIS2_EE12_Vector_implD1Ev
	.set	_ZNSt12_Vector_baseISt6vectorIdSaIdEESaIS2_EE12_Vector_implD1Ev,_ZNSt12_Vector_baseISt6vectorIdSaIdEESaIS2_EE12_Vector_implD2Ev
	.section	.text._ZNSt12_Vector_baseISt6vectorIdSaIdEESaIS2_EEC2Ev,"axG",@progbits,_ZNSt12_Vector_baseISt6vectorIdSaIdEESaIS2_EEC5Ev,comdat
	.align 2
	.weak	_ZNSt12_Vector_baseISt6vectorIdSaIdEESaIS2_EEC2Ev
	.type	_ZNSt12_Vector_baseISt6vectorIdSaIdEESaIS2_EEC2Ev, @function
_ZNSt12_Vector_baseISt6vectorIdSaIdEESaIS2_EEC2Ev:
.LFB3334:
	.cfi_startproc
	endbr64
	pushq	%rbp
	.cfi_def_cfa_offset 16
	.cfi_offset 6, -16
	movq	%rsp, %rbp
	.cfi_def_cfa_register 6
	subq	$16, %rsp
	movq	%rdi, -8(%rbp)
	movq	-8(%rbp), %rax
	movq	%rax, %rdi
	call	_ZNSt12_Vector_baseISt6vectorIdSaIdEESaIS2_EE12_Vector_implC1Ev
	nop
	leave
	.cfi_def_cfa 7, 8
	ret
	.cfi_endproc
.LFE3334:
	.size	_ZNSt12_Vector_baseISt6vectorIdSaIdEESaIS2_EEC2Ev, .-_ZNSt12_Vector_baseISt6vectorIdSaIdEESaIS2_EEC2Ev
	.weak	_ZNSt12_Vector_baseISt6vectorIdSaIdEESaIS2_EEC1Ev
	.set	_ZNSt12_Vector_baseISt6vectorIdSaIdEESaIS2_EEC1Ev,_ZNSt12_Vector_baseISt6vectorIdSaIdEESaIS2_EEC2Ev
	.section	.text._ZNSt6vectorIS_IdSaIdEESaIS1_EEC2Ev,"axG",@progbits,_ZNSt6vectorIS_IdSaIdEESaIS1_EEC5Ev,comdat
	.align 2
	.weak	_ZNSt6vectorIS_IdSaIdEESaIS1_EEC2Ev
	.type	_ZNSt6vectorIS_IdSaIdEESaIS1_EEC2Ev, @function
_ZNSt6vectorIS_IdSaIdEESaIS1_EEC2Ev:
.LFB3336:
	.cfi_startproc
	endbr64
	pushq	%rbp
	.cfi_def_cfa_offset 16
	.cfi_offset 6, -16
	movq	%rsp, %rbp
	.cfi_def_cfa_register 6
	subq	$16, %rsp
	movq	%rdi, -8(%rbp)
	movq	-8(%rbp), %rax
	movq	%rax, %rdi
	call	_ZNSt12_Vector_baseISt6vectorIdSaIdEESaIS2_EEC2Ev
	nop
	leave
	.cfi_def_cfa 7, 8
	ret
	.cfi_endproc
.LFE3336:
	.size	_ZNSt6vectorIS_IdSaIdEESaIS1_EEC2Ev, .-_ZNSt6vectorIS_IdSaIdEESaIS1_EEC2Ev
	.weak	_ZNSt6vectorIS_IdSaIdEESaIS1_EEC1Ev
	.set	_ZNSt6vectorIS_IdSaIdEESaIS1_EEC1Ev,_ZNSt6vectorIS_IdSaIdEESaIS1_EEC2Ev
	.section	.text._ZNSt4pairIKNSt7__cxx1112basic_stringIcSt11char_traitsIcESaIcEEES5_ED2Ev,"axG",@progbits,_ZNSt4pairIKNSt7__cxx1112basic_stringIcSt11char_traitsIcESaIcEEES5_ED5Ev,comdat
	.align 2
	.weak	_ZNSt4pairIKNSt7__cxx1112basic_stringIcSt11char_traitsIcESaIcEEES5_ED2Ev
	.type	_ZNSt4pairIKNSt7__cxx1112basic_stringIcSt11char_traitsIcESaIcEEES5_ED2Ev, @function
_ZNSt4pairIKNSt7__cxx1112basic_stringIcSt11char_traitsIcESaIcEEES5_ED2Ev:
.LFB3354:
	.cfi_startproc
	endbr64
	pushq	%rbp
	.cfi_def_cfa_offset 16
	.cfi_offset 6, -16
	movq	%rsp, %rbp
	.cfi_def_cfa_register 6
	subq	$16, %rsp
	movq	%rdi, -8(%rbp)
	movq	-8(%rbp), %rax
	addq	$32, %rax
	movq	%rax, %rdi
	call	_ZNSt7__cxx1112basic_stringIcSt11char_traitsIcESaIcEED1Ev@PLT
	movq	-8(%rbp), %rax
	movq	%rax, %rdi
	call	_ZNSt7__cxx1112basic_stringIcSt11char_traitsIcESaIcEED1Ev@PLT
	nop
	leave
	.cfi_def_cfa 7, 8
	ret
	.cfi_endproc
.LFE3354:
	.size	_ZNSt4pairIKNSt7__cxx1112basic_stringIcSt11char_traitsIcESaIcEEES5_ED2Ev, .-_ZNSt4pairIKNSt7__cxx1112basic_stringIcSt11char_traitsIcESaIcEEES5_ED2Ev
	.weak	_ZNSt4pairIKNSt7__cxx1112basic_stringIcSt11char_traitsIcESaIcEEES5_ED1Ev
	.set	_ZNSt4pairIKNSt7__cxx1112basic_stringIcSt11char_traitsIcESaIcEEES5_ED1Ev,_ZNSt4pairIKNSt7__cxx1112basic_stringIcSt11char_traitsIcESaIcEEES5_ED2Ev
	.section	.text._ZNSt4pairIKNSt7__cxx1112basic_stringIcSt11char_traitsIcESaIcEEES5_EC1IRA6_KcRA5_S9_Lb1EEEOT_OT0_,"axG",@progbits,_ZNSt4pairIKNSt7__cxx1112basic_stringIcSt11char_traitsIcESaIcEEES5_EC1IRA6_KcRA5_S9_Lb1EEEOT_OT0_,comdat
	.align 2
	.weak	_ZNSt4pairIKNSt7__cxx1112basic_stringIcSt11char_traitsIcESaIcEEES5_EC1IRA6_KcRA5_S9_Lb1EEEOT_OT0_
	.type	_ZNSt4pairIKNSt7__cxx1112basic_stringIcSt11char_traitsIcESaIcEEES5_EC1IRA6_KcRA5_S9_Lb1EEEOT_OT0_, @function
_ZNSt4pairIKNSt7__cxx1112basic_stringIcSt11char_traitsIcESaIcEEES5_EC1IRA6_KcRA5_S9_Lb1EEEOT_OT0_:
.LFB3358:
	.cfi_startproc
	.cfi_personality 0x9b,DW.ref.__gxx_personality_v0
	.cfi_lsda 0x1b,.LLSDA3358
	endbr64
	pushq	%rbp
	.cfi_def_cfa_offset 16
	.cfi_offset 6, -16
	movq	%rsp, %rbp
	.cfi_def_cfa_register 6
	pushq	%rbx
	subq	$56, %rsp
	.cfi_offset 3, -24
	movq	%rdi, -40(%rbp)
	movq	%rsi, -48(%rbp)
	movq	%rdx, -56(%rbp)
	movq	%fs:40, %rax
	movq	%rax, -24(%rbp)
	xorl	%eax, %eax
	movq	-40(%rbp), %rbx
	leaq	-25(%rbp), %rax
	movq	%rax, %rdi
	call	_ZNSaIcEC1Ev@PLT
	movq	-48(%rbp), %rax
	movq	%rax, %rdi
	call	_ZSt7forwardIRA6_KcEOT_RNSt16remove_referenceIS3_E4typeE
	movq	%rax, %rcx
	leaq	-25(%rbp), %rax
	movq	%rax, %rdx
	movq	%rcx, %rsi
	movq	%rbx, %rdi
.LEHB132:
	call	_ZNSt7__cxx1112basic_stringIcSt11char_traitsIcESaIcEEC1EPKcRKS3_@PLT
.LEHE132:
	leaq	-25(%rbp), %rax
	movq	%rax, %rdi
	call	_ZNSaIcED1Ev@PLT
	movq	-40(%rbp), %rax
	leaq	32(%rax), %rbx
	leaq	-25(%rbp), %rax
	movq	%rax, %rdi
	call	_ZNSaIcEC1Ev@PLT
	movq	-56(%rbp), %rax
	movq	%rax, %rdi
	call	_ZSt7forwardIRA5_KcEOT_RNSt16remove_referenceIS3_E4typeE
	movq	%rax, %rcx
	leaq	-25(%rbp), %rax
	movq	%rax, %rdx
	movq	%rcx, %rsi
	movq	%rbx, %rdi
.LEHB133:
	call	_ZNSt7__cxx1112basic_stringIcSt11char_traitsIcESaIcEEC1EPKcRKS3_@PLT
.LEHE133:
	leaq	-25(%rbp), %rax
	movq	%rax, %rdi
	call	_ZNSaIcED1Ev@PLT
	nop
	movq	-24(%rbp), %rax
	subq	%fs:40, %rax
	je	.L300
	jmp	.L303
.L301:
	endbr64
	movq	%rax, %rbx
	leaq	-25(%rbp), %rax
	movq	%rax, %rdi
	call	_ZNSaIcED1Ev@PLT
	movq	%rbx, %rax
	movq	%rax, %rdi
.LEHB134:
	call	_Unwind_Resume@PLT
.L302:
	endbr64
	movq	%rax, %rbx
	leaq	-25(%rbp), %rax
	movq	%rax, %rdi
	call	_ZNSaIcED1Ev@PLT
	movq	-40(%rbp), %rax
	movq	%rax, %rdi
	call	_ZNSt7__cxx1112basic_stringIcSt11char_traitsIcESaIcEED1Ev@PLT
	movq	%rbx, %rax
	movq	%rax, %rdi
	call	_Unwind_Resume@PLT
.LEHE134:
.L303:
	call	__stack_chk_fail@PLT
.L300:
	movq	-8(%rbp), %rbx
	leave
	.cfi_def_cfa 7, 8
	ret
	.cfi_endproc
.LFE3358:
	.section	.gcc_except_table._ZNSt4pairIKNSt7__cxx1112basic_stringIcSt11char_traitsIcESaIcEEES5_EC1IRA6_KcRA5_S9_Lb1EEEOT_OT0_,"aG",@progbits,_ZNSt4pairIKNSt7__cxx1112basic_stringIcSt11char_traitsIcESaIcEEES5_EC1IRA6_KcRA5_S9_Lb1EEEOT_OT0_,comdat
.LLSDA3358:
	.byte	0xff
	.byte	0xff
	.byte	0x1
	.uleb128 .LLSDACSE3358-.LLSDACSB3358
.LLSDACSB3358:
	.uleb128 .LEHB132-.LFB3358
	.uleb128 .LEHE132-.LEHB132
	.uleb128 .L301-.LFB3358
	.uleb128 0
	.uleb128 .LEHB133-.LFB3358
	.uleb128 .LEHE133-.LEHB133
	.uleb128 .L302-.LFB3358
	.uleb128 0
	.uleb128 .LEHB134-.LFB3358
	.uleb128 .LEHE134-.LEHB134
	.uleb128 0
	.uleb128 0
.LLSDACSE3358:
	.section	.text._ZNSt4pairIKNSt7__cxx1112basic_stringIcSt11char_traitsIcESaIcEEES5_EC1IRA6_KcRA5_S9_Lb1EEEOT_OT0_,"axG",@progbits,_ZNSt4pairIKNSt7__cxx1112basic_stringIcSt11char_traitsIcESaIcEEES5_EC1IRA6_KcRA5_S9_Lb1EEEOT_OT0_,comdat
	.size	_ZNSt4pairIKNSt7__cxx1112basic_stringIcSt11char_traitsIcESaIcEEES5_EC1IRA6_KcRA5_S9_Lb1EEEOT_OT0_, .-_ZNSt4pairIKNSt7__cxx1112basic_stringIcSt11char_traitsIcESaIcEEES5_EC1IRA6_KcRA5_S9_Lb1EEEOT_OT0_
	.section	.text._ZNSt4pairIKNSt7__cxx1112basic_stringIcSt11char_traitsIcESaIcEEES5_EC1IRA10_KcRA2_S9_Lb1EEEOT_OT0_,"axG",@progbits,_ZNSt4pairIKNSt7__cxx1112basic_stringIcSt11char_traitsIcESaIcEEES5_EC1IRA10_KcRA2_S9_Lb1EEEOT_OT0_,comdat
	.align 2
	.weak	_ZNSt4pairIKNSt7__cxx1112basic_stringIcSt11char_traitsIcESaIcEEES5_EC1IRA10_KcRA2_S9_Lb1EEEOT_OT0_
	.type	_ZNSt4pairIKNSt7__cxx1112basic_stringIcSt11char_traitsIcESaIcEEES5_EC1IRA10_KcRA2_S9_Lb1EEEOT_OT0_, @function
_ZNSt4pairIKNSt7__cxx1112basic_stringIcSt11char_traitsIcESaIcEEES5_EC1IRA10_KcRA2_S9_Lb1EEEOT_OT0_:
.LFB3361:
	.cfi_startproc
	.cfi_personality 0x9b,DW.ref.__gxx_personality_v0
	.cfi_lsda 0x1b,.LLSDA3361
	endbr64
	pushq	%rbp
	.cfi_def_cfa_offset 16
	.cfi_offset 6, -16
	movq	%rsp, %rbp
	.cfi_def_cfa_register 6
	pushq	%rbx
	subq	$56, %rsp
	.cfi_offset 3, -24
	movq	%rdi, -40(%rbp)
	movq	%rsi, -48(%rbp)
	movq	%rdx, -56(%rbp)
	movq	%fs:40, %rax
	movq	%rax, -24(%rbp)
	xorl	%eax, %eax
	movq	-40(%rbp), %rbx
	leaq	-25(%rbp), %rax
	movq	%rax, %rdi
	call	_ZNSaIcEC1Ev@PLT
	movq	-48(%rbp), %rax
	movq	%rax, %rdi
	call	_ZSt7forwardIRA10_KcEOT_RNSt16remove_referenceIS3_E4typeE
	movq	%rax, %rcx
	leaq	-25(%rbp), %rax
	movq	%rax, %rdx
	movq	%rcx, %rsi
	movq	%rbx, %rdi
.LEHB135:
	call	_ZNSt7__cxx1112basic_stringIcSt11char_traitsIcESaIcEEC1EPKcRKS3_@PLT
.LEHE135:
	leaq	-25(%rbp), %rax
	movq	%rax, %rdi
	call	_ZNSaIcED1Ev@PLT
	movq	-40(%rbp), %rax
	leaq	32(%rax), %rbx
	leaq	-25(%rbp), %rax
	movq	%rax, %rdi
	call	_ZNSaIcEC1Ev@PLT
	movq	-56(%rbp), %rax
	movq	%rax, %rdi
	call	_ZSt7forwardIRA2_KcEOT_RNSt16remove_referenceIS3_E4typeE
	movq	%rax, %rcx
	leaq	-25(%rbp), %rax
	movq	%rax, %rdx
	movq	%rcx, %rsi
	movq	%rbx, %rdi
.LEHB136:
	call	_ZNSt7__cxx1112basic_stringIcSt11char_traitsIcESaIcEEC1EPKcRKS3_@PLT
.LEHE136:
	leaq	-25(%rbp), %rax
	movq	%rax, %rdi
	call	_ZNSaIcED1Ev@PLT
	nop
	movq	-24(%rbp), %rax
	subq	%fs:40, %rax
	je	.L307
	jmp	.L310
.L308:
	endbr64
	movq	%rax, %rbx
	leaq	-25(%rbp), %rax
	movq	%rax, %rdi
	call	_ZNSaIcED1Ev@PLT
	movq	%rbx, %rax
	movq	%rax, %rdi
.LEHB137:
	call	_Unwind_Resume@PLT
.L309:
	endbr64
	movq	%rax, %rbx
	leaq	-25(%rbp), %rax
	movq	%rax, %rdi
	call	_ZNSaIcED1Ev@PLT
	movq	-40(%rbp), %rax
	movq	%rax, %rdi
	call	_ZNSt7__cxx1112basic_stringIcSt11char_traitsIcESaIcEED1Ev@PLT
	movq	%rbx, %rax
	movq	%rax, %rdi
	call	_Unwind_Resume@PLT
.LEHE137:
.L310:
	call	__stack_chk_fail@PLT
.L307:
	movq	-8(%rbp), %rbx
	leave
	.cfi_def_cfa 7, 8
	ret
	.cfi_endproc
.LFE3361:
	.section	.gcc_except_table._ZNSt4pairIKNSt7__cxx1112basic_stringIcSt11char_traitsIcESaIcEEES5_EC1IRA10_KcRA2_S9_Lb1EEEOT_OT0_,"aG",@progbits,_ZNSt4pairIKNSt7__cxx1112basic_stringIcSt11char_traitsIcESaIcEEES5_EC1IRA10_KcRA2_S9_Lb1EEEOT_OT0_,comdat
.LLSDA3361:
	.byte	0xff
	.byte	0xff
	.byte	0x1
	.uleb128 .LLSDACSE3361-.LLSDACSB3361
.LLSDACSB3361:
	.uleb128 .LEHB135-.LFB3361
	.uleb128 .LEHE135-.LEHB135
	.uleb128 .L308-.LFB3361
	.uleb128 0
	.uleb128 .LEHB136-.LFB3361
	.uleb128 .LEHE136-.LEHB136
	.uleb128 .L309-.LFB3361
	.uleb128 0
	.uleb128 .LEHB137-.LFB3361
	.uleb128 .LEHE137-.LEHB137
	.uleb128 0
	.uleb128 0
.LLSDACSE3361:
	.section	.text._ZNSt4pairIKNSt7__cxx1112basic_stringIcSt11char_traitsIcESaIcEEES5_EC1IRA10_KcRA2_S9_Lb1EEEOT_OT0_,"axG",@progbits,_ZNSt4pairIKNSt7__cxx1112basic_stringIcSt11char_traitsIcESaIcEEES5_EC1IRA10_KcRA2_S9_Lb1EEEOT_OT0_,comdat
	.size	_ZNSt4pairIKNSt7__cxx1112basic_stringIcSt11char_traitsIcESaIcEEES5_EC1IRA10_KcRA2_S9_Lb1EEEOT_OT0_, .-_ZNSt4pairIKNSt7__cxx1112basic_stringIcSt11char_traitsIcESaIcEEES5_EC1IRA10_KcRA2_S9_Lb1EEEOT_OT0_
	.section	.rodata
.LC82:
	.string	"x_vertices[0]: "
.LC83:
	.string	"x_vertices[1]: "
.LC84:
	.string	"x_vertices[2]: "
.LC85:
	.string	"x_vertices[3]: "
.LC86:
	.string	"x_vertices[4]: "
.LC87:
	.string	"equal"
.LC88:
	.string	"blue"
.LC89:
	.string	"color"
.LC90:
	.string	"-"
.LC91:
	.string	"linestyle"
	.text
	.globl	_Z12draw_vehicleSt6vectorIdSaIdEEdd
	.type	_Z12draw_vehicleSt6vectorIdSaIdEEdd, @function
_Z12draw_vehicleSt6vectorIdSaIdEEdd:
.LFB3327:
	.cfi_startproc
	.cfi_personality 0x9b,DW.ref.__gxx_personality_v0
	.cfi_lsda 0x1b,.LLSDA3327
	endbr64
	pushq	%rbp
	.cfi_def_cfa_offset 16
	.cfi_offset 6, -16
	movq	%rsp, %rbp
	.cfi_def_cfa_register 6
	pushq	%r15
	pushq	%r14
	pushq	%r13
	pushq	%r12
	pushq	%rbx
	subq	$536, %rsp
	.cfi_offset 15, -24
	.cfi_offset 14, -32
	.cfi_offset 13, -40
	.cfi_offset 12, -48
	.cfi_offset 3, -56
	movq	%rdi, -488(%rbp)
	movsd	%xmm0, -496(%rbp)
	movsd	%xmm1, -504(%rbp)
	movq	%fs:40, %rax
	movq	%rax, -56(%rbp)
	xorl	%eax, %eax
	movsd	-496(%rbp), %xmm0
	movsd	.LC80(%rip), %xmm1
	divsd	%xmm1, %xmm0
	movsd	%xmm0, -256(%rbp)
	movsd	-504(%rbp), %xmm0
	movq	.LC81(%rip), %xmm1
	xorpd	%xmm1, %xmm0
	movsd	.LC80(%rip), %xmm1
	divsd	%xmm1, %xmm0
	movsd	%xmm0, -248(%rbp)
	leaq	-256(%rbp), %rax
	movq	%rax, -576(%rbp)
	movq	$2, -568(%rbp)
	leaq	-464(%rbp), %rax
	movq	%rax, %rdi
	call	_ZNSaIdEC1Ev
	leaq	-464(%rbp), %rdx
	movq	-576(%rbp), %rcx
	movq	-568(%rbp), %rbx
	movq	%rcx, %rsi
	movq	%rbx, %rdi
	movq	%rbx, %rdi
	leaq	-192(%rbp), %rax
	movq	%rdx, %rcx
	movq	%rdi, %rdx
	movq	%rax, %rdi
.LEHB138:
	call	_ZNSt6vectorIdSaIdEEC1ESt16initializer_listIdERKS0_
.LEHE138:
	movsd	-496(%rbp), %xmm0
	movsd	.LC80(%rip), %xmm1
	divsd	%xmm1, %xmm0
	movsd	%xmm0, -240(%rbp)
	movsd	-504(%rbp), %xmm0
	movsd	.LC80(%rip), %xmm1
	divsd	%xmm1, %xmm0
	movsd	%xmm0, -232(%rbp)
	leaq	-240(%rbp), %rax
	movq	%rax, -560(%rbp)
	movq	$2, -552(%rbp)
	leaq	-400(%rbp), %rax
	movq	%rax, %rdi
	call	_ZNSaIdEC1Ev
	leaq	-400(%rbp), %rax
	movq	-560(%rbp), %rcx
	movq	-552(%rbp), %rbx
	movq	%rcx, %rsi
	movq	%rbx, %rdi
	movq	%rbx, %r8
	leaq	-192(%rbp), %rdx
	leaq	24(%rdx), %rdi
	movq	%rax, %rcx
	movq	%r8, %rdx
.LEHB139:
	call	_ZNSt6vectorIdSaIdEEC1ESt16initializer_listIdERKS0_
.LEHE139:
	movsd	-496(%rbp), %xmm0
	movq	.LC81(%rip), %xmm1
	xorpd	%xmm1, %xmm0
	movsd	.LC80(%rip), %xmm1
	divsd	%xmm1, %xmm0
	movsd	%xmm0, -224(%rbp)
	movsd	-504(%rbp), %xmm0
	movsd	.LC80(%rip), %xmm1
	divsd	%xmm1, %xmm0
	movsd	%xmm0, -216(%rbp)
	leaq	-224(%rbp), %rax
	movq	%rax, -544(%rbp)
	movq	$2, -536(%rbp)
	leaq	-368(%rbp), %rax
	movq	%rax, %rdi
	call	_ZNSaIdEC1Ev
	leaq	-368(%rbp), %rax
	movq	-544(%rbp), %rcx
	movq	-536(%rbp), %rbx
	movq	%rcx, %rsi
	movq	%rbx, %rdi
	movq	%rbx, %r8
	leaq	-192(%rbp), %rdx
	leaq	48(%rdx), %rdi
	movq	%rax, %rcx
	movq	%r8, %rdx
.LEHB140:
	call	_ZNSt6vectorIdSaIdEEC1ESt16initializer_listIdERKS0_
.LEHE140:
	movsd	-496(%rbp), %xmm0
	movq	.LC81(%rip), %xmm1
	xorpd	%xmm1, %xmm0
	movsd	.LC80(%rip), %xmm1
	divsd	%xmm1, %xmm0
	movsd	%xmm0, -208(%rbp)
	movsd	-504(%rbp), %xmm0
	movq	.LC81(%rip), %xmm1
	xorpd	%xmm1, %xmm0
	movsd	.LC80(%rip), %xmm1
	divsd	%xmm1, %xmm0
	movsd	%xmm0, -200(%rbp)
	leaq	-208(%rbp), %rax
	movq	%rax, -528(%rbp)
	movq	$2, -520(%rbp)
	leaq	-336(%rbp), %rax
	movq	%rax, %rdi
	call	_ZNSaIdEC1Ev
	leaq	-336(%rbp), %rax
	movq	-528(%rbp), %rcx
	movq	-520(%rbp), %rbx
	movq	%rcx, %rsi
	movq	%rbx, %rdi
	movq	%rbx, %r8
	leaq	-192(%rbp), %rdx
	leaq	72(%rdx), %rdi
	movq	%rax, %rcx
	movq	%r8, %rdx
.LEHB141:
	call	_ZNSt6vectorIdSaIdEEC1ESt16initializer_listIdERKS0_
.LEHE141:
	leaq	-192(%rbp), %rax
	movq	%rax, %r14
	movl	$4, %r15d
	leaq	-304(%rbp), %rax
	movq	%rax, %rdi
	call	_ZNSaISt6vectorIdSaIdEEEC1Ev
	leaq	-304(%rbp), %rdx
	movq	%r14, %rsi
	movq	%r15, %rdi
	movq	%r14, %rcx
	movq	%r15, %rbx
	movq	%rbx, %rdi
	leaq	-432(%rbp), %rax
	movq	%rdx, %rcx
	movq	%rdi, %rdx
	movq	%rax, %rdi
.LEHB142:
	call	_ZNSt6vectorIS_IdSaIdEESaIS1_EEC1ESt16initializer_listIS1_ERKS2_
.LEHE142:
	leaq	-304(%rbp), %rax
	movq	%rax, %rdi
	call	_ZNSaISt6vectorIdSaIdEEED1Ev
	leaq	-192(%rbp), %rbx
	addq	$96, %rbx
.L313:
	leaq	-192(%rbp), %rax
	cmpq	%rax, %rbx
	je	.L312
	subq	$24, %rbx
	movq	%rbx, %rdi
	call	_ZNSt6vectorIdSaIdEED1Ev
	jmp	.L313
.L312:
	leaq	-336(%rbp), %rax
	movq	%rax, %rdi
	call	_ZNSaIdED1Ev
	leaq	-368(%rbp), %rax
	movq	%rax, %rdi
	call	_ZNSaIdED1Ev
	leaq	-400(%rbp), %rax
	movq	%rax, %rdi
	call	_ZNSaIdED1Ev
	leaq	-464(%rbp), %rax
	movq	%rax, %rdi
	call	_ZNSaIdED1Ev
	leaq	-400(%rbp), %rax
	movq	%rax, %rdi
	call	_ZNSt6vectorIS_IdSaIdEESaIS1_EEC1Ev
	leaq	-368(%rbp), %rax
	movq	%rax, %rdi
	call	_ZNSt6vectorIdSaIdEEC1Ev
	leaq	-336(%rbp), %rax
	movq	%rax, %rdi
	call	_ZNSt6vectorIdSaIdEEC1Ev
	leaq	-432(%rbp), %rax
	movq	%rax, -456(%rbp)
	movq	-456(%rbp), %rax
	movq	%rax, %rdi
	call	_ZNSt6vectorIS_IdSaIdEESaIS1_EE5beginEv
	movq	%rax, -480(%rbp)
	movq	-456(%rbp), %rax
	movq	%rax, %rdi
	call	_ZNSt6vectorIS_IdSaIdEESaIS1_EE3endEv
	movq	%rax, -472(%rbp)
	jmp	.L314
.L315:
	leaq	-480(%rbp), %rax
	movq	%rax, %rdi
	call	_ZNK9__gnu_cxx17__normal_iteratorIPSt6vectorIdSaIdEES1_IS3_SaIS3_EEEdeEv
	movq	%rax, %rdx
	leaq	-304(%rbp), %rax
	movq	%rdx, %rsi
	movq	%rax, %rdi
.LEHB143:
	call	_ZNSt6vectorIdSaIdEEC1ERKS1_
.LEHE143:
	leaq	-304(%rbp), %rax
	movl	$0, %esi
	movq	%rax, %rdi
	call	_ZNSt6vectorIdSaIdEEixEm
	movsd	(%rax), %xmm4
	movsd	%xmm4, -528(%rbp)
	movq	-488(%rbp), %rax
	movl	$2, %esi
	movq	%rax, %rdi
	call	_ZNSt6vectorIdSaIdEEixEm
	movq	(%rax), %rax
	movq	%rax, %xmm0
	call	cos@PLT
	mulsd	-528(%rbp), %xmm0
	movsd	%xmm0, -528(%rbp)
	leaq	-304(%rbp), %rax
	movl	$1, %esi
	movq	%rax, %rdi
	call	_ZNSt6vectorIdSaIdEEixEm
	movsd	(%rax), %xmm2
	movsd	%xmm2, -544(%rbp)
	movq	-488(%rbp), %rax
	movl	$2, %esi
	movq	%rax, %rdi
	call	_ZNSt6vectorIdSaIdEEixEm
	movq	(%rax), %rax
	movq	%rax, %xmm0
	call	sin@PLT
	movsd	-544(%rbp), %xmm1
	mulsd	%xmm0, %xmm1
	movsd	-528(%rbp), %xmm0
	subsd	%xmm1, %xmm0
	movsd	%xmm0, -448(%rbp)
	leaq	-304(%rbp), %rax
	movl	$0, %esi
	movq	%rax, %rdi
	call	_ZNSt6vectorIdSaIdEEixEm
	movsd	(%rax), %xmm5
	movsd	%xmm5, -528(%rbp)
	movq	-488(%rbp), %rax
	movl	$2, %esi
	movq	%rax, %rdi
	call	_ZNSt6vectorIdSaIdEEixEm
	movq	(%rax), %rax
	movq	%rax, %xmm0
	call	sin@PLT
	mulsd	-528(%rbp), %xmm0
	movsd	%xmm0, -528(%rbp)
	leaq	-304(%rbp), %rax
	movl	$1, %esi
	movq	%rax, %rdi
	call	_ZNSt6vectorIdSaIdEEixEm
	movsd	(%rax), %xmm6
	movsd	%xmm6, -544(%rbp)
	movq	-488(%rbp), %rax
	movl	$2, %esi
	movq	%rax, %rdi
	call	_ZNSt6vectorIdSaIdEEixEm
	movq	(%rax), %rax
	movq	%rax, %xmm0
	call	cos@PLT
	mulsd	-544(%rbp), %xmm0
	addsd	-528(%rbp), %xmm0
	movsd	%xmm0, -440(%rbp)
	movq	-488(%rbp), %rax
	movl	$0, %esi
	movq	%rax, %rdi
	call	_ZNSt6vectorIdSaIdEEixEm
	movsd	(%rax), %xmm0
	addsd	-448(%rbp), %xmm0
	movsd	%xmm0, -464(%rbp)
	leaq	-464(%rbp), %rdx
	leaq	-368(%rbp), %rax
	movq	%rdx, %rsi
	movq	%rax, %rdi
.LEHB144:
	call	_ZNSt6vectorIdSaIdEE9push_backEOd
	movq	-488(%rbp), %rax
	movl	$1, %esi
	movq	%rax, %rdi
	call	_ZNSt6vectorIdSaIdEEixEm
	movsd	(%rax), %xmm0
	addsd	-440(%rbp), %xmm0
	movsd	%xmm0, -464(%rbp)
	leaq	-464(%rbp), %rdx
	leaq	-336(%rbp), %rax
	movq	%rdx, %rsi
	movq	%rax, %rdi
	call	_ZNSt6vectorIdSaIdEE9push_backEOd
.LEHE144:
	leaq	-304(%rbp), %rax
	movq	%rax, %rdi
	call	_ZNSt6vectorIdSaIdEED1Ev
	leaq	-480(%rbp), %rax
	movq	%rax, %rdi
	call	_ZN9__gnu_cxx17__normal_iteratorIPSt6vectorIdSaIdEES1_IS3_SaIS3_EEEppEv
.L314:
	leaq	-472(%rbp), %rdx
	leaq	-480(%rbp), %rax
	movq	%rdx, %rsi
	movq	%rax, %rdi
	call	_ZN9__gnu_cxxneIPSt6vectorIdSaIdEES1_IS3_SaIS3_EEEEbRKNS_17__normal_iteratorIT_T0_EESC_
	testb	%al, %al
	jne	.L315
	leaq	-368(%rbp), %rax
	movl	$0, %esi
	movq	%rax, %rdi
	call	_ZNSt6vectorIdSaIdEEixEm
	movq	%rax, %rdx
	leaq	-368(%rbp), %rax
	movq	%rdx, %rsi
	movq	%rax, %rdi
.LEHB145:
	call	_ZNSt6vectorIdSaIdEE9push_backERKd
	leaq	-336(%rbp), %rax
	movl	$0, %esi
	movq	%rax, %rdi
	call	_ZNSt6vectorIdSaIdEEixEm
	movq	%rax, %rdx
	leaq	-336(%rbp), %rax
	movq	%rdx, %rsi
	movq	%rax, %rdi
	call	_ZNSt6vectorIdSaIdEE9push_backERKd
	leaq	.LC82(%rip), %rax
	movq	%rax, %rsi
	leaq	_ZSt4cout(%rip), %rax
	movq	%rax, %rdi
	call	_ZStlsISt11char_traitsIcEERSt13basic_ostreamIcT_ES5_PKc@PLT
	movq	%rax, %rbx
	leaq	-368(%rbp), %rax
	movl	$0, %esi
	movq	%rax, %rdi
	call	_ZNSt6vectorIdSaIdEEixEm
	movq	(%rax), %rax
	movq	%rax, %xmm0
	movq	%rbx, %rdi
	call	_ZNSolsEd@PLT
	movq	_ZSt4endlIcSt11char_traitsIcEERSt13basic_ostreamIT_T0_ES6_@GOTPCREL(%rip), %rdx
	movq	%rdx, %rsi
	movq	%rax, %rdi
	call	_ZNSolsEPFRSoS_E@PLT
	leaq	.LC83(%rip), %rax
	movq	%rax, %rsi
	leaq	_ZSt4cout(%rip), %rax
	movq	%rax, %rdi
	call	_ZStlsISt11char_traitsIcEERSt13basic_ostreamIcT_ES5_PKc@PLT
	movq	%rax, %rbx
	leaq	-368(%rbp), %rax
	movl	$1, %esi
	movq	%rax, %rdi
	call	_ZNSt6vectorIdSaIdEEixEm
	movq	(%rax), %rax
	movq	%rax, %xmm0
	movq	%rbx, %rdi
	call	_ZNSolsEd@PLT
	movq	_ZSt4endlIcSt11char_traitsIcEERSt13basic_ostreamIT_T0_ES6_@GOTPCREL(%rip), %rdx
	movq	%rdx, %rsi
	movq	%rax, %rdi
	call	_ZNSolsEPFRSoS_E@PLT
	leaq	.LC84(%rip), %rax
	movq	%rax, %rsi
	leaq	_ZSt4cout(%rip), %rax
	movq	%rax, %rdi
	call	_ZStlsISt11char_traitsIcEERSt13basic_ostreamIcT_ES5_PKc@PLT
	movq	%rax, %rbx
	leaq	-368(%rbp), %rax
	movl	$2, %esi
	movq	%rax, %rdi
	call	_ZNSt6vectorIdSaIdEEixEm
	movq	(%rax), %rax
	movq	%rax, %xmm0
	movq	%rbx, %rdi
	call	_ZNSolsEd@PLT
	movq	_ZSt4endlIcSt11char_traitsIcEERSt13basic_ostreamIT_T0_ES6_@GOTPCREL(%rip), %rdx
	movq	%rdx, %rsi
	movq	%rax, %rdi
	call	_ZNSolsEPFRSoS_E@PLT
	leaq	.LC85(%rip), %rax
	movq	%rax, %rsi
	leaq	_ZSt4cout(%rip), %rax
	movq	%rax, %rdi
	call	_ZStlsISt11char_traitsIcEERSt13basic_ostreamIcT_ES5_PKc@PLT
	movq	%rax, %rbx
	leaq	-368(%rbp), %rax
	movl	$3, %esi
	movq	%rax, %rdi
	call	_ZNSt6vectorIdSaIdEEixEm
	movq	(%rax), %rax
	movq	%rax, %xmm0
	movq	%rbx, %rdi
	call	_ZNSolsEd@PLT
	movq	_ZSt4endlIcSt11char_traitsIcEERSt13basic_ostreamIT_T0_ES6_@GOTPCREL(%rip), %rdx
	movq	%rdx, %rsi
	movq	%rax, %rdi
	call	_ZNSolsEPFRSoS_E@PLT
	leaq	.LC86(%rip), %rax
	movq	%rax, %rsi
	leaq	_ZSt4cout(%rip), %rax
	movq	%rax, %rdi
	call	_ZStlsISt11char_traitsIcEERSt13basic_ostreamIcT_ES5_PKc@PLT
	movq	%rax, %rbx
	leaq	-368(%rbp), %rax
	movl	$4, %esi
	movq	%rax, %rdi
	call	_ZNSt6vectorIdSaIdEEixEm
	movq	(%rax), %rax
	movq	%rax, %xmm0
	movq	%rbx, %rdi
	call	_ZNSolsEd@PLT
	movq	_ZSt4endlIcSt11char_traitsIcEERSt13basic_ostreamIT_T0_ES6_@GOTPCREL(%rip), %rdx
	movq	%rdx, %rsi
	movq	%rax, %rdi
	call	_ZNSolsEPFRSoS_E@PLT
.LEHE145:
	leaq	-304(%rbp), %rax
	movq	%rax, %rdi
	call	_ZNSaIcEC1Ev@PLT
	leaq	-304(%rbp), %rdx
	leaq	-192(%rbp), %rax
	leaq	.LC87(%rip), %rcx
	movq	%rcx, %rsi
	movq	%rax, %rdi
.LEHB146:
	call	_ZNSt7__cxx1112basic_stringIcSt11char_traitsIcESaIcEEC1EPKcRKS3_@PLT
.LEHE146:
	leaq	-192(%rbp), %rax
	movq	%rax, %rdi
.LEHB147:
	call	_ZN13matplotlibcpp4axisERKNSt7__cxx1112basic_stringIcSt11char_traitsIcESaIcEEE
.LEHE147:
	leaq	-192(%rbp), %rax
	movq	%rax, %rdi
	call	_ZNSt7__cxx1112basic_stringIcSt11char_traitsIcESaIcEED1Ev@PLT
	leaq	-304(%rbp), %rax
	movq	%rax, %rdi
	call	_ZNSaIcED1Ev@PLT
	leaq	-192(%rbp), %rax
	leaq	.LC88(%rip), %rdx
	leaq	.LC89(%rip), %rcx
	movq	%rcx, %rsi
	movq	%rax, %rdi
.LEHB148:
	call	_ZNSt4pairIKNSt7__cxx1112basic_stringIcSt11char_traitsIcESaIcEEES5_EC1IRA6_KcRA5_S9_Lb1EEEOT_OT0_
	leaq	-192(%rbp), %rax
	addq	$64, %rax
	leaq	.LC90(%rip), %rdx
	leaq	.LC91(%rip), %rcx
	movq	%rcx, %rsi
	movq	%rax, %rdi
	call	_ZNSt4pairIKNSt7__cxx1112basic_stringIcSt11char_traitsIcESaIcEEES5_EC1IRA10_KcRA2_S9_Lb1EEEOT_OT0_
.LEHE148:
	leaq	-192(%rbp), %rax
	movq	%rax, %r12
	movl	$2, %r13d
	leaq	-464(%rbp), %rax
	movq	%rax, %rdi
	call	_ZNSaISt4pairIKNSt7__cxx1112basic_stringIcSt11char_traitsIcESaIcEEES5_EEC1Ev
	leaq	-464(%rbp), %r8
	leaq	-472(%rbp), %rdx
	movq	%r12, %rsi
	movq	%r13, %rdi
	movq	%r12, %rcx
	movq	%r13, %rbx
	movq	%rbx, %rdi
	leaq	-304(%rbp), %rax
	movq	%rdx, %rcx
	movq	%rdi, %rdx
	movq	%rax, %rdi
.LEHB149:
	call	_ZNSt3mapINSt7__cxx1112basic_stringIcSt11char_traitsIcESaIcEEES5_St4lessIS5_ESaISt4pairIKS5_S5_EEEC1ESt16initializer_listISA_ERKS7_RKSB_
.LEHE149:
	leaq	-304(%rbp), %rdx
	leaq	-336(%rbp), %rcx
	leaq	-368(%rbp), %rax
	movq	%rcx, %rsi
	movq	%rax, %rdi
.LEHB150:
	call	_ZN13matplotlibcpp4plotERKSt6vectorIdSaIdEES4_RKSt3mapINSt7__cxx1112basic_stringIcSt11char_traitsIcESaIcEEESB_St4lessISB_ESaISt4pairIKSB_SB_EEE
.LEHE150:
	leaq	-304(%rbp), %rax
	movq	%rax, %rdi
	call	_ZNSt3mapINSt7__cxx1112basic_stringIcSt11char_traitsIcESaIcEEES5_St4lessIS5_ESaISt4pairIKS5_S5_EEED1Ev
	leaq	-464(%rbp), %rax
	movq	%rax, %rdi
	call	_ZNSaISt4pairIKNSt7__cxx1112basic_stringIcSt11char_traitsIcESaIcEEES5_EED1Ev
	leaq	-192(%rbp), %rbx
	subq	$-128, %rbx
.L317:
	leaq	-192(%rbp), %rax
	cmpq	%rax, %rbx
	je	.L316
	subq	$64, %rbx
	movq	%rbx, %rdi
	call	_ZNSt4pairIKNSt7__cxx1112basic_stringIcSt11char_traitsIcESaIcEEES5_ED1Ev
	jmp	.L317
.L316:
	leaq	-336(%rbp), %rax
	movq	%rax, %rdi
	call	_ZNSt6vectorIdSaIdEED1Ev
	leaq	-368(%rbp), %rax
	movq	%rax, %rdi
	call	_ZNSt6vectorIdSaIdEED1Ev
	leaq	-400(%rbp), %rax
	movq	%rax, %rdi
	call	_ZNSt6vectorIS_IdSaIdEESaIS1_EED1Ev
	leaq	-432(%rbp), %rax
	movq	%rax, %rdi
	call	_ZNSt6vectorIS_IdSaIdEESaIS1_EED1Ev
	movq	-56(%rbp), %rax
	subq	%fs:40, %rax
	je	.L333
	jmp	.L345
.L338:
	endbr64
	movq	%rax, %rbx
	leaq	-304(%rbp), %rax
	movq	%rax, %rdi
	call	_ZNSaISt6vectorIdSaIdEEED1Ev
	movq	%rbx, %r12
	leaq	-192(%rbp), %rbx
	addq	$96, %rbx
.L320:
	leaq	-192(%rbp), %rax
	cmpq	%rax, %rbx
	je	.L319
	subq	$24, %rbx
	movq	%rbx, %rdi
	call	_ZNSt6vectorIdSaIdEED1Ev
	jmp	.L320
.L319:
	movq	%r12, %rbx
	jmp	.L321
.L337:
	endbr64
	movq	%rax, %rbx
.L321:
	leaq	-336(%rbp), %rax
	movq	%rax, %rdi
	call	_ZNSaIdED1Ev
	jmp	.L322
.L336:
	endbr64
	movq	%rax, %rbx
.L322:
	leaq	-368(%rbp), %rax
	movq	%rax, %rdi
	call	_ZNSaIdED1Ev
	jmp	.L323
.L335:
	endbr64
	movq	%rax, %rbx
.L323:
	leaq	-400(%rbp), %rax
	movq	%rax, %rdi
	call	_ZNSaIdED1Ev
	jmp	.L324
.L334:
	endbr64
	movq	%rax, %rbx
.L324:
	leaq	-464(%rbp), %rax
	movq	%rax, %rdi
	call	_ZNSaIdED1Ev
	movq	%rbx, %rax
	movq	%rax, %rdi
.LEHB151:
	call	_Unwind_Resume@PLT
.L339:
	endbr64
	movq	%rax, %rbx
	leaq	-304(%rbp), %rax
	movq	%rax, %rdi
	call	_ZNSt6vectorIdSaIdEED1Ev
	jmp	.L326
.L342:
	endbr64
	movq	%rax, %rbx
	leaq	-192(%rbp), %rax
	movq	%rax, %rdi
	call	_ZNSt7__cxx1112basic_stringIcSt11char_traitsIcESaIcEED1Ev@PLT
	jmp	.L328
.L341:
	endbr64
	movq	%rax, %rbx
.L328:
	leaq	-304(%rbp), %rax
	movq	%rax, %rdi
	call	_ZNSaIcED1Ev@PLT
	jmp	.L326
.L344:
	endbr64
	movq	%rax, %rbx
	leaq	-304(%rbp), %rax
	movq	%rax, %rdi
	call	_ZNSt3mapINSt7__cxx1112basic_stringIcSt11char_traitsIcESaIcEEES5_St4lessIS5_ESaISt4pairIKS5_S5_EEED1Ev
	jmp	.L330
.L343:
	endbr64
	movq	%rax, %rbx
.L330:
	leaq	-464(%rbp), %rax
	movq	%rax, %rdi
	call	_ZNSaISt4pairIKNSt7__cxx1112basic_stringIcSt11char_traitsIcESaIcEEES5_EED1Ev
	movq	%rbx, %r12
	leaq	-192(%rbp), %rbx
	subq	$-128, %rbx
.L332:
	leaq	-192(%rbp), %rax
	cmpq	%rax, %rbx
	je	.L331
	subq	$64, %rbx
	movq	%rbx, %rdi
	call	_ZNSt4pairIKNSt7__cxx1112basic_stringIcSt11char_traitsIcESaIcEEES5_ED1Ev
	jmp	.L332
.L331:
	movq	%r12, %rbx
	jmp	.L326
.L340:
	endbr64
	movq	%rax, %rbx
.L326:
	leaq	-336(%rbp), %rax
	movq	%rax, %rdi
	call	_ZNSt6vectorIdSaIdEED1Ev
	leaq	-368(%rbp), %rax
	movq	%rax, %rdi
	call	_ZNSt6vectorIdSaIdEED1Ev
	leaq	-400(%rbp), %rax
	movq	%rax, %rdi
	call	_ZNSt6vectorIS_IdSaIdEESaIS1_EED1Ev
	leaq	-432(%rbp), %rax
	movq	%rax, %rdi
	call	_ZNSt6vectorIS_IdSaIdEESaIS1_EED1Ev
	movq	%rbx, %rax
	movq	%rax, %rdi
	call	_Unwind_Resume@PLT
.LEHE151:
.L345:
	call	__stack_chk_fail@PLT
.L333:
	addq	$536, %rsp
	popq	%rbx
	popq	%r12
	popq	%r13
	popq	%r14
	popq	%r15
	popq	%rbp
	.cfi_def_cfa 7, 8
	ret
	.cfi_endproc
.LFE3327:
	.section	.gcc_except_table,"a",@progbits
.LLSDA3327:
	.byte	0xff
	.byte	0xff
	.byte	0x1
	.uleb128 .LLSDACSE3327-.LLSDACSB3327
.LLSDACSB3327:
	.uleb128 .LEHB138-.LFB3327
	.uleb128 .LEHE138-.LEHB138
	.uleb128 .L334-.LFB3327
	.uleb128 0
	.uleb128 .LEHB139-.LFB3327
	.uleb128 .LEHE139-.LEHB139
	.uleb128 .L335-.LFB3327
	.uleb128 0
	.uleb128 .LEHB140-.LFB3327
	.uleb128 .LEHE140-.LEHB140
	.uleb128 .L336-.LFB3327
	.uleb128 0
	.uleb128 .LEHB141-.LFB3327
	.uleb128 .LEHE141-.LEHB141
	.uleb128 .L337-.LFB3327
	.uleb128 0
	.uleb128 .LEHB142-.LFB3327
	.uleb128 .LEHE142-.LEHB142
	.uleb128 .L338-.LFB3327
	.uleb128 0
	.uleb128 .LEHB143-.LFB3327
	.uleb128 .LEHE143-.LEHB143
	.uleb128 .L340-.LFB3327
	.uleb128 0
	.uleb128 .LEHB144-.LFB3327
	.uleb128 .LEHE144-.LEHB144
	.uleb128 .L339-.LFB3327
	.uleb128 0
	.uleb128 .LEHB145-.LFB3327
	.uleb128 .LEHE145-.LEHB145
	.uleb128 .L340-.LFB3327
	.uleb128 0
	.uleb128 .LEHB146-.LFB3327
	.uleb128 .LEHE146-.LEHB146
	.uleb128 .L341-.LFB3327
	.uleb128 0
	.uleb128 .LEHB147-.LFB3327
	.uleb128 .LEHE147-.LEHB147
	.uleb128 .L342-.LFB3327
	.uleb128 0
	.uleb128 .LEHB148-.LFB3327
	.uleb128 .LEHE148-.LEHB148
	.uleb128 .L340-.LFB3327
	.uleb128 0
	.uleb128 .LEHB149-.LFB3327
	.uleb128 .LEHE149-.LEHB149
	.uleb128 .L343-.LFB3327
	.uleb128 0
	.uleb128 .LEHB150-.LFB3327
	.uleb128 .LEHE150-.LEHB150
	.uleb128 .L344-.LFB3327
	.uleb128 0
	.uleb128 .LEHB151-.LFB3327
	.uleb128 .LEHE151-.LEHB151
	.uleb128 0
	.uleb128 0
.LLSDACSE3327:
	.text
	.size	_Z12draw_vehicleSt6vectorIdSaIdEEdd, .-_Z12draw_vehicleSt6vectorIdSaIdEEdd
	.section	.text._ZStplIcSt11char_traitsIcESaIcEENSt7__cxx1112basic_stringIT_T0_T1_EEOS8_RKS8_,"axG",@progbits,_ZStplIcSt11char_traitsIcESaIcEENSt7__cxx1112basic_stringIT_T0_T1_EEOS8_RKS8_,comdat
	.weak	_ZStplIcSt11char_traitsIcESaIcEENSt7__cxx1112basic_stringIT_T0_T1_EEOS8_RKS8_
	.type	_ZStplIcSt11char_traitsIcESaIcEENSt7__cxx1112basic_stringIT_T0_T1_EEOS8_RKS8_, @function
_ZStplIcSt11char_traitsIcESaIcEENSt7__cxx1112basic_stringIT_T0_T1_EEOS8_RKS8_:
.LFB3612:
	.cfi_startproc
	endbr64
	pushq	%rbp
	.cfi_def_cfa_offset 16
	.cfi_offset 6, -16
	movq	%rsp, %rbp
	.cfi_def_cfa_register 6
	subq	$32, %rsp
	movq	%rdi, -8(%rbp)
	movq	%rsi, -16(%rbp)
	movq	%rdx, -24(%rbp)
	movq	-24(%rbp), %rdx
	movq	-16(%rbp), %rax
	movq	%rdx, %rsi
	movq	%rax, %rdi
	call	_ZNSt7__cxx1112basic_stringIcSt11char_traitsIcESaIcEE6appendERKS4_@PLT
	movq	%rax, %rdi
	call	_ZSt4moveIRNSt7__cxx1112basic_stringIcSt11char_traitsIcESaIcEEEEONSt16remove_referenceIT_E4typeEOS8_
	movq	%rax, %rdx
	movq	-8(%rbp), %rax
	movq	%rdx, %rsi
	movq	%rax, %rdi
	call	_ZNSt7__cxx1112basic_stringIcSt11char_traitsIcESaIcEEC1EOS4_@PLT
	movq	-8(%rbp), %rax
	leave
	.cfi_def_cfa 7, 8
	ret
	.cfi_endproc
.LFE3612:
	.size	_ZStplIcSt11char_traitsIcESaIcEENSt7__cxx1112basic_stringIT_T0_T1_EEOS8_RKS8_, .-_ZStplIcSt11char_traitsIcESaIcEENSt7__cxx1112basic_stringIT_T0_T1_EEOS8_RKS8_
	.section	.text._ZStplIcSt11char_traitsIcESaIcEENSt7__cxx1112basic_stringIT_T0_T1_EERKS8_OS8_,"axG",@progbits,_ZStplIcSt11char_traitsIcESaIcEENSt7__cxx1112basic_stringIT_T0_T1_EERKS8_OS8_,comdat
	.weak	_ZStplIcSt11char_traitsIcESaIcEENSt7__cxx1112basic_stringIT_T0_T1_EERKS8_OS8_
	.type	_ZStplIcSt11char_traitsIcESaIcEENSt7__cxx1112basic_stringIT_T0_T1_EERKS8_OS8_, @function
_ZStplIcSt11char_traitsIcESaIcEENSt7__cxx1112basic_stringIT_T0_T1_EERKS8_OS8_:
.LFB3613:
	.cfi_startproc
	endbr64
	pushq	%rbp
	.cfi_def_cfa_offset 16
	.cfi_offset 6, -16
	movq	%rsp, %rbp
	.cfi_def_cfa_register 6
	subq	$32, %rsp
	movq	%rdi, -8(%rbp)
	movq	%rsi, -16(%rbp)
	movq	%rdx, -24(%rbp)
	movq	-16(%rbp), %rdx
	movq	-24(%rbp), %rax
	movl	$0, %esi
	movq	%rax, %rdi
	call	_ZNSt7__cxx1112basic_stringIcSt11char_traitsIcESaIcEE6insertEmRKS4_@PLT
	movq	%rax, %rdi
	call	_ZSt4moveIRNSt7__cxx1112basic_stringIcSt11char_traitsIcESaIcEEEEONSt16remove_referenceIT_E4typeEOS8_
	movq	%rax, %rdx
	movq	-8(%rbp), %rax
	movq	%rdx, %rsi
	movq	%rax, %rdi
	call	_ZNSt7__cxx1112basic_stringIcSt11char_traitsIcESaIcEEC1EOS4_@PLT
	movq	-8(%rbp), %rax
	leave
	.cfi_def_cfa 7, 8
	ret
	.cfi_endproc
.LFE3613:
	.size	_ZStplIcSt11char_traitsIcESaIcEENSt7__cxx1112basic_stringIT_T0_T1_EERKS8_OS8_, .-_ZStplIcSt11char_traitsIcESaIcEENSt7__cxx1112basic_stringIT_T0_T1_EERKS8_OS8_
	.section	.text._ZNKSt3mapINSt7__cxx1112basic_stringIcSt11char_traitsIcESaIcEEES5_St4lessIS5_ESaISt4pairIKS5_S5_EEE5beginEv,"axG",@progbits,_ZNKSt3mapINSt7__cxx1112basic_stringIcSt11char_traitsIcESaIcEEES5_St4lessIS5_ESaISt4pairIKS5_S5_EEE5beginEv,comdat
	.align 2
	.weak	_ZNKSt3mapINSt7__cxx1112basic_stringIcSt11char_traitsIcESaIcEEES5_St4lessIS5_ESaISt4pairIKS5_S5_EEE5beginEv
	.type	_ZNKSt3mapINSt7__cxx1112basic_stringIcSt11char_traitsIcESaIcEEES5_St4lessIS5_ESaISt4pairIKS5_S5_EEE5beginEv, @function
_ZNKSt3mapINSt7__cxx1112basic_stringIcSt11char_traitsIcESaIcEEES5_St4lessIS5_ESaISt4pairIKS5_S5_EEE5beginEv:
.LFB3618:
	.cfi_startproc
	endbr64
	pushq	%rbp
	.cfi_def_cfa_offset 16
	.cfi_offset 6, -16
	movq	%rsp, %rbp
	.cfi_def_cfa_register 6
	subq	$16, %rsp
	movq	%rdi, -8(%rbp)
	movq	-8(%rbp), %rax
	movq	%rax, %rdi
	call	_ZNKSt8_Rb_treeINSt7__cxx1112basic_stringIcSt11char_traitsIcESaIcEEESt4pairIKS5_S5_ESt10_Select1stIS8_ESt4lessIS5_ESaIS8_EE5beginEv
	leave
	.cfi_def_cfa 7, 8
	ret
	.cfi_endproc
.LFE3618:
	.size	_ZNKSt3mapINSt7__cxx1112basic_stringIcSt11char_traitsIcESaIcEEES5_St4lessIS5_ESaISt4pairIKS5_S5_EEE5beginEv, .-_ZNKSt3mapINSt7__cxx1112basic_stringIcSt11char_traitsIcESaIcEEES5_St4lessIS5_ESaISt4pairIKS5_S5_EEE5beginEv
	.section	.text._ZNKSt3mapINSt7__cxx1112basic_stringIcSt11char_traitsIcESaIcEEES5_St4lessIS5_ESaISt4pairIKS5_S5_EEE3endEv,"axG",@progbits,_ZNKSt3mapINSt7__cxx1112basic_stringIcSt11char_traitsIcESaIcEEES5_St4lessIS5_ESaISt4pairIKS5_S5_EEE3endEv,comdat
	.align 2
	.weak	_ZNKSt3mapINSt7__cxx1112basic_stringIcSt11char_traitsIcESaIcEEES5_St4lessIS5_ESaISt4pairIKS5_S5_EEE3endEv
	.type	_ZNKSt3mapINSt7__cxx1112basic_stringIcSt11char_traitsIcESaIcEEES5_St4lessIS5_ESaISt4pairIKS5_S5_EEE3endEv, @function
_ZNKSt3mapINSt7__cxx1112basic_stringIcSt11char_traitsIcESaIcEEES5_St4lessIS5_ESaISt4pairIKS5_S5_EEE3endEv:
.LFB3619:
	.cfi_startproc
	endbr64
	pushq	%rbp
	.cfi_def_cfa_offset 16
	.cfi_offset 6, -16
	movq	%rsp, %rbp
	.cfi_def_cfa_register 6
	subq	$16, %rsp
	movq	%rdi, -8(%rbp)
	movq	-8(%rbp), %rax
	movq	%rax, %rdi
	call	_ZNKSt8_Rb_treeINSt7__cxx1112basic_stringIcSt11char_traitsIcESaIcEEESt4pairIKS5_S5_ESt10_Select1stIS8_ESt4lessIS5_ESaIS8_EE3endEv
	leave
	.cfi_def_cfa 7, 8
	ret
	.cfi_endproc
.LFE3619:
	.size	_ZNKSt3mapINSt7__cxx1112basic_stringIcSt11char_traitsIcESaIcEEES5_St4lessIS5_ESaISt4pairIKS5_S5_EEE3endEv, .-_ZNKSt3mapINSt7__cxx1112basic_stringIcSt11char_traitsIcESaIcEEES5_St4lessIS5_ESaISt4pairIKS5_S5_EEE3endEv
	.section	.text._ZStneRKSt23_Rb_tree_const_iteratorISt4pairIKNSt7__cxx1112basic_stringIcSt11char_traitsIcESaIcEEES6_EESB_,"axG",@progbits,_ZStneRKSt23_Rb_tree_const_iteratorISt4pairIKNSt7__cxx1112basic_stringIcSt11char_traitsIcESaIcEEES6_EESB_,comdat
	.weak	_ZStneRKSt23_Rb_tree_const_iteratorISt4pairIKNSt7__cxx1112basic_stringIcSt11char_traitsIcESaIcEEES6_EESB_
	.type	_ZStneRKSt23_Rb_tree_const_iteratorISt4pairIKNSt7__cxx1112basic_stringIcSt11char_traitsIcESaIcEEES6_EESB_, @function
_ZStneRKSt23_Rb_tree_const_iteratorISt4pairIKNSt7__cxx1112basic_stringIcSt11char_traitsIcESaIcEEES6_EESB_:
.LFB3620:
	.cfi_startproc
	endbr64
	pushq	%rbp
	.cfi_def_cfa_offset 16
	.cfi_offset 6, -16
	movq	%rsp, %rbp
	.cfi_def_cfa_register 6
	movq	%rdi, -8(%rbp)
	movq	%rsi, -16(%rbp)
	movq	-8(%rbp), %rax
	movq	(%rax), %rdx
	movq	-16(%rbp), %rax
	movq	(%rax), %rax
	cmpq	%rax, %rdx
	setne	%al
	popq	%rbp
	.cfi_def_cfa 7, 8
	ret
	.cfi_endproc
.LFE3620:
	.size	_ZStneRKSt23_Rb_tree_const_iteratorISt4pairIKNSt7__cxx1112basic_stringIcSt11char_traitsIcESaIcEEES6_EESB_, .-_ZStneRKSt23_Rb_tree_const_iteratorISt4pairIKNSt7__cxx1112basic_stringIcSt11char_traitsIcESaIcEEES6_EESB_
	.section	.text._ZNSt23_Rb_tree_const_iteratorISt4pairIKNSt7__cxx1112basic_stringIcSt11char_traitsIcESaIcEEES6_EEppEv,"axG",@progbits,_ZNSt23_Rb_tree_const_iteratorISt4pairIKNSt7__cxx1112basic_stringIcSt11char_traitsIcESaIcEEES6_EEppEv,comdat
	.align 2
	.weak	_ZNSt23_Rb_tree_const_iteratorISt4pairIKNSt7__cxx1112basic_stringIcSt11char_traitsIcESaIcEEES6_EEppEv
	.type	_ZNSt23_Rb_tree_const_iteratorISt4pairIKNSt7__cxx1112basic_stringIcSt11char_traitsIcESaIcEEES6_EEppEv, @function
_ZNSt23_Rb_tree_const_iteratorISt4pairIKNSt7__cxx1112basic_stringIcSt11char_traitsIcESaIcEEES6_EEppEv:
.LFB3621:
	.cfi_startproc
	endbr64
	pushq	%rbp
	.cfi_def_cfa_offset 16
	.cfi_offset 6, -16
	movq	%rsp, %rbp
	.cfi_def_cfa_register 6
	subq	$16, %rsp
	movq	%rdi, -8(%rbp)
	movq	-8(%rbp), %rax
	movq	(%rax), %rax
	movq	%rax, %rdi
	call	_ZSt18_Rb_tree_incrementPKSt18_Rb_tree_node_base@PLT
	movq	-8(%rbp), %rdx
	movq	%rax, (%rdx)
	movq	-8(%rbp), %rax
	leave
	.cfi_def_cfa 7, 8
	ret
	.cfi_endproc
.LFE3621:
	.size	_ZNSt23_Rb_tree_const_iteratorISt4pairIKNSt7__cxx1112basic_stringIcSt11char_traitsIcESaIcEEES6_EEppEv, .-_ZNSt23_Rb_tree_const_iteratorISt4pairIKNSt7__cxx1112basic_stringIcSt11char_traitsIcESaIcEEES6_EEppEv
	.section	.text._ZNKSt23_Rb_tree_const_iteratorISt4pairIKNSt7__cxx1112basic_stringIcSt11char_traitsIcESaIcEEES6_EEptEv,"axG",@progbits,_ZNKSt23_Rb_tree_const_iteratorISt4pairIKNSt7__cxx1112basic_stringIcSt11char_traitsIcESaIcEEES6_EEptEv,comdat
	.align 2
	.weak	_ZNKSt23_Rb_tree_const_iteratorISt4pairIKNSt7__cxx1112basic_stringIcSt11char_traitsIcESaIcEEES6_EEptEv
	.type	_ZNKSt23_Rb_tree_const_iteratorISt4pairIKNSt7__cxx1112basic_stringIcSt11char_traitsIcESaIcEEES6_EEptEv, @function
_ZNKSt23_Rb_tree_const_iteratorISt4pairIKNSt7__cxx1112basic_stringIcSt11char_traitsIcESaIcEEES6_EEptEv:
.LFB3622:
	.cfi_startproc
	endbr64
	pushq	%rbp
	.cfi_def_cfa_offset 16
	.cfi_offset 6, -16
	movq	%rsp, %rbp
	.cfi_def_cfa_register 6
	subq	$16, %rsp
	movq	%rdi, -8(%rbp)
	movq	-8(%rbp), %rax
	movq	(%rax), %rax
	movq	%rax, %rdi
	call	_ZNKSt13_Rb_tree_nodeISt4pairIKNSt7__cxx1112basic_stringIcSt11char_traitsIcESaIcEEES6_EE9_M_valptrEv
	leave
	.cfi_def_cfa 7, 8
	ret
	.cfi_endproc
.LFE3622:
	.size	_ZNKSt23_Rb_tree_const_iteratorISt4pairIKNSt7__cxx1112basic_stringIcSt11char_traitsIcESaIcEEES6_EEptEv, .-_ZNKSt23_Rb_tree_const_iteratorISt4pairIKNSt7__cxx1112basic_stringIcSt11char_traitsIcESaIcEEES6_EEptEv
	.section	.text._ZNSaISt13_Rb_tree_nodeISt4pairIKNSt7__cxx1112basic_stringIcSt11char_traitsIcESaIcEEES6_EEED2Ev,"axG",@progbits,_ZNSaISt13_Rb_tree_nodeISt4pairIKNSt7__cxx1112basic_stringIcSt11char_traitsIcESaIcEEES6_EEED5Ev,comdat
	.align 2
	.weak	_ZNSaISt13_Rb_tree_nodeISt4pairIKNSt7__cxx1112basic_stringIcSt11char_traitsIcESaIcEEES6_EEED2Ev
	.type	_ZNSaISt13_Rb_tree_nodeISt4pairIKNSt7__cxx1112basic_stringIcSt11char_traitsIcESaIcEEES6_EEED2Ev, @function
_ZNSaISt13_Rb_tree_nodeISt4pairIKNSt7__cxx1112basic_stringIcSt11char_traitsIcESaIcEEES6_EEED2Ev:
.LFB3637:
	.cfi_startproc
	endbr64
	pushq	%rbp
	.cfi_def_cfa_offset 16
	.cfi_offset 6, -16
	movq	%rsp, %rbp
	.cfi_def_cfa_register 6
	subq	$16, %rsp
	movq	%rdi, -8(%rbp)
	movq	-8(%rbp), %rax
	movq	%rax, %rdi
	call	_ZN9__gnu_cxx13new_allocatorISt13_Rb_tree_nodeISt4pairIKNSt7__cxx1112basic_stringIcSt11char_traitsIcESaIcEEES8_EEED2Ev
	nop
	leave
	.cfi_def_cfa 7, 8
	ret
	.cfi_endproc
.LFE3637:
	.size	_ZNSaISt13_Rb_tree_nodeISt4pairIKNSt7__cxx1112basic_stringIcSt11char_traitsIcESaIcEEES6_EEED2Ev, .-_ZNSaISt13_Rb_tree_nodeISt4pairIKNSt7__cxx1112basic_stringIcSt11char_traitsIcESaIcEEES6_EEED2Ev
	.weak	_ZNSaISt13_Rb_tree_nodeISt4pairIKNSt7__cxx1112basic_stringIcSt11char_traitsIcESaIcEEES6_EEED1Ev
	.set	_ZNSaISt13_Rb_tree_nodeISt4pairIKNSt7__cxx1112basic_stringIcSt11char_traitsIcESaIcEEES6_EEED1Ev,_ZNSaISt13_Rb_tree_nodeISt4pairIKNSt7__cxx1112basic_stringIcSt11char_traitsIcESaIcEEES6_EEED2Ev
	.section	.text._ZNSt8_Rb_treeINSt7__cxx1112basic_stringIcSt11char_traitsIcESaIcEEESt4pairIKS5_S5_ESt10_Select1stIS8_ESt4lessIS5_ESaIS8_EED2Ev,"axG",@progbits,_ZNSt8_Rb_treeINSt7__cxx1112basic_stringIcSt11char_traitsIcESaIcEEESt4pairIKS5_S5_ESt10_Select1stIS8_ESt4lessIS5_ESaIS8_EED5Ev,comdat
	.align 2
	.weak	_ZNSt8_Rb_treeINSt7__cxx1112basic_stringIcSt11char_traitsIcESaIcEEESt4pairIKS5_S5_ESt10_Select1stIS8_ESt4lessIS5_ESaIS8_EED2Ev
	.type	_ZNSt8_Rb_treeINSt7__cxx1112basic_stringIcSt11char_traitsIcESaIcEEESt4pairIKS5_S5_ESt10_Select1stIS8_ESt4lessIS5_ESaIS8_EED2Ev, @function
_ZNSt8_Rb_treeINSt7__cxx1112basic_stringIcSt11char_traitsIcESaIcEEESt4pairIKS5_S5_ESt10_Select1stIS8_ESt4lessIS5_ESaIS8_EED2Ev:
.LFB3640:
	.cfi_startproc
	.cfi_personality 0x9b,DW.ref.__gxx_personality_v0
	.cfi_lsda 0x1b,.LLSDA3640
	endbr64
	pushq	%rbp
	.cfi_def_cfa_offset 16
	.cfi_offset 6, -16
	movq	%rsp, %rbp
	.cfi_def_cfa_register 6
	subq	$16, %rsp
	movq	%rdi, -8(%rbp)
	movq	-8(%rbp), %rax
	movq	%rax, %rdi
	call	_ZNSt8_Rb_treeINSt7__cxx1112basic_stringIcSt11char_traitsIcESaIcEEESt4pairIKS5_S5_ESt10_Select1stIS8_ESt4lessIS5_ESaIS8_EE8_M_beginEv
	movq	%rax, %rdx
	movq	-8(%rbp), %rax
	movq	%rdx, %rsi
	movq	%rax, %rdi
	call	_ZNSt8_Rb_treeINSt7__cxx1112basic_stringIcSt11char_traitsIcESaIcEEESt4pairIKS5_S5_ESt10_Select1stIS8_ESt4lessIS5_ESaIS8_EE8_M_eraseEPSt13_Rb_tree_nodeIS8_E
	movq	-8(%rbp), %rax
	movq	%rax, %rdi
	call	_ZNSt8_Rb_treeINSt7__cxx1112basic_stringIcSt11char_traitsIcESaIcEEESt4pairIKS5_S5_ESt10_Select1stIS8_ESt4lessIS5_ESaIS8_EE13_Rb_tree_implISC_Lb1EED1Ev
	nop
	leave
	.cfi_def_cfa 7, 8
	ret
	.cfi_endproc
.LFE3640:
	.section	.gcc_except_table
.LLSDA3640:
	.byte	0xff
	.byte	0xff
	.byte	0x1
	.uleb128 .LLSDACSE3640-.LLSDACSB3640
.LLSDACSB3640:
.LLSDACSE3640:
	.section	.text._ZNSt8_Rb_treeINSt7__cxx1112basic_stringIcSt11char_traitsIcESaIcEEESt4pairIKS5_S5_ESt10_Select1stIS8_ESt4lessIS5_ESaIS8_EED2Ev,"axG",@progbits,_ZNSt8_Rb_treeINSt7__cxx1112basic_stringIcSt11char_traitsIcESaIcEEESt4pairIKS5_S5_ESt10_Select1stIS8_ESt4lessIS5_ESaIS8_EED5Ev,comdat
	.size	_ZNSt8_Rb_treeINSt7__cxx1112basic_stringIcSt11char_traitsIcESaIcEEESt4pairIKS5_S5_ESt10_Select1stIS8_ESt4lessIS5_ESaIS8_EED2Ev, .-_ZNSt8_Rb_treeINSt7__cxx1112basic_stringIcSt11char_traitsIcESaIcEEESt4pairIKS5_S5_ESt10_Select1stIS8_ESt4lessIS5_ESaIS8_EED2Ev
	.weak	_ZNSt8_Rb_treeINSt7__cxx1112basic_stringIcSt11char_traitsIcESaIcEEESt4pairIKS5_S5_ESt10_Select1stIS8_ESt4lessIS5_ESaIS8_EED1Ev
	.set	_ZNSt8_Rb_treeINSt7__cxx1112basic_stringIcSt11char_traitsIcESaIcEEESt4pairIKS5_S5_ESt10_Select1stIS8_ESt4lessIS5_ESaIS8_EED1Ev,_ZNSt8_Rb_treeINSt7__cxx1112basic_stringIcSt11char_traitsIcESaIcEEESt4pairIKS5_S5_ESt10_Select1stIS8_ESt4lessIS5_ESaIS8_EED2Ev
	.section	.rodata
	.align 8
.LC92:
	.string	"bool matplotlibcpp::plot(const std::vector<Numeric>&, const std::vector<Numeric>&, const std::map<std::__cxx11::basic_string<char>, std::__cxx11::basic_string<char> >&) [with Numeric = double]"
	.align 8
.LC93:
	.string	"/home/jing/dev/dynamic_0902/dynamic_window_approach/include/matplotlibcpp.h"
.LC94:
	.string	"x.size() == y.size()"
	.section	.text._ZN13matplotlibcpp4plotIdEEbRKSt6vectorIT_SaIS2_EES6_RKSt3mapINSt7__cxx1112basic_stringIcSt11char_traitsIcESaIcEEESD_St4lessISD_ESaISt4pairIKSD_SD_EEE,"axG",@progbits,_ZN13matplotlibcpp4plotIdEEbRKSt6vectorIT_SaIS2_EES6_RKSt3mapINSt7__cxx1112basic_stringIcSt11char_traitsIcESaIcEEESD_St4lessISD_ESaISt4pairIKSD_SD_EEE,comdat
	.weak	_ZN13matplotlibcpp4plotIdEEbRKSt6vectorIT_SaIS2_EES6_RKSt3mapINSt7__cxx1112basic_stringIcSt11char_traitsIcESaIcEEESD_St4lessISD_ESaISt4pairIKSD_SD_EEE
	.type	_ZN13matplotlibcpp4plotIdEEbRKSt6vectorIT_SaIS2_EES6_RKSt3mapINSt7__cxx1112basic_stringIcSt11char_traitsIcESaIcEEESD_St4lessISD_ESaISt4pairIKSD_SD_EEE, @function
_ZN13matplotlibcpp4plotIdEEbRKSt6vectorIT_SaIS2_EES6_RKSt3mapINSt7__cxx1112basic_stringIcSt11char_traitsIcESaIcEEESD_St4lessISD_ESaISt4pairIKSD_SD_EEE:
.LFB3668:
	.cfi_startproc
	endbr64
	pushq	%rbp
	.cfi_def_cfa_offset 16
	.cfi_offset 6, -16
	movq	%rsp, %rbp
	.cfi_def_cfa_register 6
	pushq	%rbx
	subq	$104, %rsp
	.cfi_offset 3, -24
	movq	%rdi, -88(%rbp)
	movq	%rsi, -96(%rbp)
	movq	%rdx, -104(%rbp)
	movq	%fs:40, %rax
	movq	%rax, -24(%rbp)
	xorl	%eax, %eax
	movq	-88(%rbp), %rax
	movq	%rax, %rdi
	call	_ZNKSt6vectorIdSaIdEE4sizeEv
	movq	%rax, %rbx
	movq	-96(%rbp), %rax
	movq	%rax, %rdi
	call	_ZNKSt6vectorIdSaIdEE4sizeEv
	cmpq	%rax, %rbx
	je	.L363
	leaq	.LC92(%rip), %rax
	movq	%rax, %rcx
	movl	$472, %edx
	leaq	.LC93(%rip), %rax
	movq	%rax, %rsi
	leaq	.LC94(%rip), %rax
	movq	%rax, %rdi
	call	__assert_fail@PLT
.L363:
	call	_ZN13matplotlibcpp6detail12_interpreter3getEv
	movq	-88(%rbp), %rax
	movq	%rax, %rdi
	call	_ZN13matplotlibcpp6detail9get_arrayIdEEP7_objectRKSt6vectorIT_SaIS5_EE
	movq	%rax, -64(%rbp)
	movq	-96(%rbp), %rax
	movq	%rax, %rdi
	call	_ZN13matplotlibcpp6detail9get_arrayIdEEP7_objectRKSt6vectorIT_SaIS5_EE
	movq	%rax, -56(%rbp)
	movl	$2, %edi
	call	PyTuple_New@PLT
	movq	%rax, -48(%rbp)
	movq	-64(%rbp), %rdx
	movq	-48(%rbp), %rax
	movl	$0, %esi
	movq	%rax, %rdi
	call	PyTuple_SetItem@PLT
	movq	-56(%rbp), %rdx
	movq	-48(%rbp), %rax
	movl	$1, %esi
	movq	%rax, %rdi
	call	PyTuple_SetItem@PLT
	call	PyDict_New@PLT
	movq	%rax, -40(%rbp)
	movq	-104(%rbp), %rax
	movq	%rax, %rdi
	call	_ZNKSt3mapINSt7__cxx1112basic_stringIcSt11char_traitsIcESaIcEEES5_St4lessIS5_ESaISt4pairIKS5_S5_EEE5beginEv
	movq	%rax, -80(%rbp)
	jmp	.L364
.L365:
	leaq	-80(%rbp), %rax
	movq	%rax, %rdi
	call	_ZNKSt23_Rb_tree_const_iteratorISt4pairIKNSt7__cxx1112basic_stringIcSt11char_traitsIcESaIcEEES6_EEptEv
	addq	$32, %rax
	movq	%rax, %rdi
	call	_ZNKSt7__cxx1112basic_stringIcSt11char_traitsIcESaIcEE5c_strEv@PLT
	movq	%rax, %rdi
	call	PyUnicode_FromString@PLT
	movq	%rax, %rbx
	leaq	-80(%rbp), %rax
	movq	%rax, %rdi
	call	_ZNKSt23_Rb_tree_const_iteratorISt4pairIKNSt7__cxx1112basic_stringIcSt11char_traitsIcESaIcEEES6_EEptEv
	movq	%rax, %rdi
	call	_ZNKSt7__cxx1112basic_stringIcSt11char_traitsIcESaIcEE5c_strEv@PLT
	movq	%rax, %rcx
	movq	-40(%rbp), %rax
	movq	%rbx, %rdx
	movq	%rcx, %rsi
	movq	%rax, %rdi
	call	PyDict_SetItemString@PLT
	leaq	-80(%rbp), %rax
	movq	%rax, %rdi
	call	_ZNSt23_Rb_tree_const_iteratorISt4pairIKNSt7__cxx1112basic_stringIcSt11char_traitsIcESaIcEEES6_EEppEv
.L364:
	movq	-104(%rbp), %rax
	movq	%rax, %rdi
	call	_ZNKSt3mapINSt7__cxx1112basic_stringIcSt11char_traitsIcESaIcEEES5_St4lessIS5_ESaISt4pairIKS5_S5_EEE3endEv
	movq	%rax, -72(%rbp)
	leaq	-72(%rbp), %rdx
	leaq	-80(%rbp), %rax
	movq	%rdx, %rsi
	movq	%rax, %rdi
	call	_ZStneRKSt23_Rb_tree_const_iteratorISt4pairIKNSt7__cxx1112basic_stringIcSt11char_traitsIcESaIcEEES6_EESB_
	testb	%al, %al
	jne	.L365
	call	_ZN13matplotlibcpp6detail12_interpreter3getEv
	movq	64(%rax), %rax
	movq	-40(%rbp), %rdx
	movq	-48(%rbp), %rcx
	movq	%rcx, %rsi
	movq	%rax, %rdi
	call	PyObject_Call@PLT
	movq	%rax, -32(%rbp)
	movq	-48(%rbp), %rax
	movq	%rax, %rdi
	call	_Py_DECREF
	movq	-40(%rbp), %rax
	movq	%rax, %rdi
	call	_Py_DECREF
	cmpq	$0, -32(%rbp)
	je	.L366
	movq	-32(%rbp), %rax
	movq	%rax, %rdi
	call	_Py_DECREF
.L366:
	cmpq	$0, -32(%rbp)
	setne	%al
	movq	-24(%rbp), %rdx
	subq	%fs:40, %rdx
	je	.L368
	call	__stack_chk_fail@PLT
.L368:
	movq	-8(%rbp), %rbx
	leave
	.cfi_def_cfa 7, 8
	ret
	.cfi_endproc
.LFE3668:
	.size	_ZN13matplotlibcpp4plotIdEEbRKSt6vectorIT_SaIS2_EES6_RKSt3mapINSt7__cxx1112basic_stringIcSt11char_traitsIcESaIcEEESD_St4lessISD_ESaISt4pairIKSD_SD_EEE, .-_ZN13matplotlibcpp4plotIdEEbRKSt6vectorIT_SaIS2_EES6_RKSt3mapINSt7__cxx1112basic_stringIcSt11char_traitsIcESaIcEEESD_St4lessISD_ESaISt4pairIKSD_SD_EEE
	.section	.text._ZNSt12_Vector_baseIdSaIdEE12_Vector_implC2Ev,"axG",@progbits,_ZNSt12_Vector_baseIdSaIdEE12_Vector_implC5Ev,comdat
	.align 2
	.weak	_ZNSt12_Vector_baseIdSaIdEE12_Vector_implC2Ev
	.type	_ZNSt12_Vector_baseIdSaIdEE12_Vector_implC2Ev, @function
_ZNSt12_Vector_baseIdSaIdEE12_Vector_implC2Ev:
.LFB3670:
	.cfi_startproc
	endbr64
	pushq	%rbp
	.cfi_def_cfa_offset 16
	.cfi_offset 6, -16
	movq	%rsp, %rbp
	.cfi_def_cfa_register 6
	subq	$16, %rsp
	movq	%rdi, -8(%rbp)
	movq	-8(%rbp), %rax
	movq	%rax, %rdi
	call	_ZNSaIdEC2Ev
	movq	-8(%rbp), %rax
	movq	%rax, %rdi
	call	_ZNSt12_Vector_baseIdSaIdEE17_Vector_impl_dataC2Ev
	nop
	leave
	.cfi_def_cfa 7, 8
	ret
	.cfi_endproc
.LFE3670:
	.size	_ZNSt12_Vector_baseIdSaIdEE12_Vector_implC2Ev, .-_ZNSt12_Vector_baseIdSaIdEE12_Vector_implC2Ev
	.weak	_ZNSt12_Vector_baseIdSaIdEE12_Vector_implC1Ev
	.set	_ZNSt12_Vector_baseIdSaIdEE12_Vector_implC1Ev,_ZNSt12_Vector_baseIdSaIdEE12_Vector_implC2Ev
	.section	.text._ZNSaIdED2Ev,"axG",@progbits,_ZNSaIdED5Ev,comdat
	.align 2
	.weak	_ZNSaIdED2Ev
	.type	_ZNSaIdED2Ev, @function
_ZNSaIdED2Ev:
.LFB3673:
	.cfi_startproc
	endbr64
	pushq	%rbp
	.cfi_def_cfa_offset 16
	.cfi_offset 6, -16
	movq	%rsp, %rbp
	.cfi_def_cfa_register 6
	subq	$16, %rsp
	movq	%rdi, -8(%rbp)
	movq	-8(%rbp), %rax
	movq	%rax, %rdi
	call	_ZN9__gnu_cxx13new_allocatorIdED2Ev
	nop
	leave
	.cfi_def_cfa 7, 8
	ret
	.cfi_endproc
.LFE3673:
	.size	_ZNSaIdED2Ev, .-_ZNSaIdED2Ev
	.weak	_ZNSaIdED1Ev
	.set	_ZNSaIdED1Ev,_ZNSaIdED2Ev
	.section	.text._ZNSt12_Vector_baseIdSaIdEED2Ev,"axG",@progbits,_ZNSt12_Vector_baseIdSaIdEED5Ev,comdat
	.align 2
	.weak	_ZNSt12_Vector_baseIdSaIdEED2Ev
	.type	_ZNSt12_Vector_baseIdSaIdEED2Ev, @function
_ZNSt12_Vector_baseIdSaIdEED2Ev:
.LFB3676:
	.cfi_startproc
	.cfi_personality 0x9b,DW.ref.__gxx_personality_v0
	.cfi_lsda 0x1b,.LLSDA3676
	endbr64
	pushq	%rbp
	.cfi_def_cfa_offset 16
	.cfi_offset 6, -16
	movq	%rsp, %rbp
	.cfi_def_cfa_register 6
	subq	$16, %rsp
	movq	%rdi, -8(%rbp)
	movq	-8(%rbp), %rax
	movq	16(%rax), %rdx
	movq	-8(%rbp), %rax
	movq	(%rax), %rcx
	movq	%rdx, %rax
	subq	%rcx, %rax
	sarq	$3, %rax
	movq	%rax, %rdx
	movq	-8(%rbp), %rax
	movq	(%rax), %rcx
	movq	-8(%rbp), %rax
	movq	%rcx, %rsi
	movq	%rax, %rdi
	call	_ZNSt12_Vector_baseIdSaIdEE13_M_deallocateEPdm
	movq	-8(%rbp), %rax
	movq	%rax, %rdi
	call	_ZNSt12_Vector_baseIdSaIdEE12_Vector_implD1Ev
	nop
	leave
	.cfi_def_cfa 7, 8
	ret
	.cfi_endproc
.LFE3676:
	.section	.gcc_except_table
.LLSDA3676:
	.byte	0xff
	.byte	0xff
	.byte	0x1
	.uleb128 .LLSDACSE3676-.LLSDACSB3676
.LLSDACSB3676:
.LLSDACSE3676:
	.section	.text._ZNSt12_Vector_baseIdSaIdEED2Ev,"axG",@progbits,_ZNSt12_Vector_baseIdSaIdEED5Ev,comdat
	.size	_ZNSt12_Vector_baseIdSaIdEED2Ev, .-_ZNSt12_Vector_baseIdSaIdEED2Ev
	.weak	_ZNSt12_Vector_baseIdSaIdEED1Ev
	.set	_ZNSt12_Vector_baseIdSaIdEED1Ev,_ZNSt12_Vector_baseIdSaIdEED2Ev
	.section	.text._ZNSt6vectorIdSaIdEED2Ev,"axG",@progbits,_ZNSt6vectorIdSaIdEED5Ev,comdat
	.align 2
	.weak	_ZNSt6vectorIdSaIdEED2Ev
	.type	_ZNSt6vectorIdSaIdEED2Ev, @function
_ZNSt6vectorIdSaIdEED2Ev:
.LFB3679:
	.cfi_startproc
	.cfi_personality 0x9b,DW.ref.__gxx_personality_v0
	.cfi_lsda 0x1b,.LLSDA3679
	endbr64
	pushq	%rbp
	.cfi_def_cfa_offset 16
	.cfi_offset 6, -16
	movq	%rsp, %rbp
	.cfi_def_cfa_register 6
	subq	$16, %rsp
	movq	%rdi, -8(%rbp)
	movq	-8(%rbp), %rax
	movq	%rax, %rdi
	call	_ZNSt12_Vector_baseIdSaIdEE19_M_get_Tp_allocatorEv
	movq	%rax, %rdx
	movq	-8(%rbp), %rax
	movq	8(%rax), %rcx
	movq	-8(%rbp), %rax
	movq	(%rax), %rax
	movq	%rcx, %rsi
	movq	%rax, %rdi
	call	_ZSt8_DestroyIPddEvT_S1_RSaIT0_E
	movq	-8(%rbp), %rax
	movq	%rax, %rdi
	call	_ZNSt12_Vector_baseIdSaIdEED2Ev
	nop
	leave
	.cfi_def_cfa 7, 8
	ret
	.cfi_endproc
.LFE3679:
	.section	.gcc_except_table
.LLSDA3679:
	.byte	0xff
	.byte	0xff
	.byte	0x1
	.uleb128 .LLSDACSE3679-.LLSDACSB3679
.LLSDACSB3679:
.LLSDACSE3679:
	.section	.text._ZNSt6vectorIdSaIdEED2Ev,"axG",@progbits,_ZNSt6vectorIdSaIdEED5Ev,comdat
	.size	_ZNSt6vectorIdSaIdEED2Ev, .-_ZNSt6vectorIdSaIdEED2Ev
	.weak	_ZNSt6vectorIdSaIdEED1Ev
	.set	_ZNSt6vectorIdSaIdEED1Ev,_ZNSt6vectorIdSaIdEED2Ev
	.section	.text._ZNSaIdEC2Ev,"axG",@progbits,_ZNSaIdEC5Ev,comdat
	.align 2
	.weak	_ZNSaIdEC2Ev
	.type	_ZNSaIdEC2Ev, @function
_ZNSaIdEC2Ev:
.LFB3686:
	.cfi_startproc
	endbr64
	pushq	%rbp
	.cfi_def_cfa_offset 16
	.cfi_offset 6, -16
	movq	%rsp, %rbp
	.cfi_def_cfa_register 6
	subq	$16, %rsp
	movq	%rdi, -8(%rbp)
	movq	-8(%rbp), %rax
	movq	%rax, %rdi
	call	_ZN9__gnu_cxx13new_allocatorIdEC2Ev
	nop
	leave
	.cfi_def_cfa 7, 8
	ret
	.cfi_endproc
.LFE3686:
	.size	_ZNSaIdEC2Ev, .-_ZNSaIdEC2Ev
	.weak	_ZNSaIdEC1Ev
	.set	_ZNSaIdEC1Ev,_ZNSaIdEC2Ev
	.section	.text._ZNSt6vectorIdSaIdEEC2ESt16initializer_listIdERKS0_,"axG",@progbits,_ZNSt6vectorIdSaIdEEC5ESt16initializer_listIdERKS0_,comdat
	.align 2
	.weak	_ZNSt6vectorIdSaIdEEC2ESt16initializer_listIdERKS0_
	.type	_ZNSt6vectorIdSaIdEEC2ESt16initializer_listIdERKS0_, @function
_ZNSt6vectorIdSaIdEEC2ESt16initializer_listIdERKS0_:
.LFB3689:
	.cfi_startproc
	.cfi_personality 0x9b,DW.ref.__gxx_personality_v0
	.cfi_lsda 0x1b,.LLSDA3689
	endbr64
	pushq	%rbp
	.cfi_def_cfa_offset 16
	.cfi_offset 6, -16
	movq	%rsp, %rbp
	.cfi_def_cfa_register 6
	pushq	%rbx
	subq	$56, %rsp
	.cfi_offset 3, -24
	movq	%rdi, -40(%rbp)
	movq	%rsi, %rax
	movq	%rdx, %rsi
	movq	%rsi, %rdx
	movq	%rax, -64(%rbp)
	movq	%rdx, -56(%rbp)
	movq	%rcx, -48(%rbp)
	movq	%fs:40, %rax
	movq	%rax, -24(%rbp)
	xorl	%eax, %eax
	movq	-40(%rbp), %rax
	movq	-48(%rbp), %rdx
	movq	%rdx, %rsi
	movq	%rax, %rdi
	call	_ZNSt12_Vector_baseIdSaIdEEC2ERKS0_
	leaq	-64(%rbp), %rax
	movq	%rax, %rdi
	call	_ZNKSt16initializer_listIdE3endEv
	movq	%rax, %rbx
	leaq	-64(%rbp), %rax
	movq	%rax, %rdi
	call	_ZNKSt16initializer_listIdE5beginEv
	movq	%rax, %rcx
	movq	-40(%rbp), %rax
	movq	%rbx, %rdx
	movq	%rcx, %rsi
	movq	%rax, %rdi
.LEHB152:
	call	_ZNSt6vectorIdSaIdEE19_M_range_initializeIPKdEEvT_S5_St20forward_iterator_tag
.LEHE152:
	jmp	.L378
.L377:
	endbr64
	movq	%rax, %rbx
	movq	-40(%rbp), %rax
	movq	%rax, %rdi
	call	_ZNSt12_Vector_baseIdSaIdEED2Ev
	movq	%rbx, %rax
	movq	%rax, %rdi
.LEHB153:
	call	_Unwind_Resume@PLT
.LEHE153:
.L378:
	movq	-24(%rbp), %rax
	subq	%fs:40, %rax
	je	.L376
	call	__stack_chk_fail@PLT
.L376:
	movq	-8(%rbp), %rbx
	leave
	.cfi_def_cfa 7, 8
	ret
	.cfi_endproc
.LFE3689:
	.section	.gcc_except_table
.LLSDA3689:
	.byte	0xff
	.byte	0xff
	.byte	0x1
	.uleb128 .LLSDACSE3689-.LLSDACSB3689
.LLSDACSB3689:
	.uleb128 .LEHB152-.LFB3689
	.uleb128 .LEHE152-.LEHB152
	.uleb128 .L377-.LFB3689
	.uleb128 0
	.uleb128 .LEHB153-.LFB3689
	.uleb128 .LEHE153-.LEHB153
	.uleb128 0
	.uleb128 0
.LLSDACSE3689:
	.section	.text._ZNSt6vectorIdSaIdEEC2ESt16initializer_listIdERKS0_,"axG",@progbits,_ZNSt6vectorIdSaIdEEC5ESt16initializer_listIdERKS0_,comdat
	.size	_ZNSt6vectorIdSaIdEEC2ESt16initializer_listIdERKS0_, .-_ZNSt6vectorIdSaIdEEC2ESt16initializer_listIdERKS0_
	.weak	_ZNSt6vectorIdSaIdEEC1ESt16initializer_listIdERKS0_
	.set	_ZNSt6vectorIdSaIdEEC1ESt16initializer_listIdERKS0_,_ZNSt6vectorIdSaIdEEC2ESt16initializer_listIdERKS0_
	.section	.text._ZNSaISt6vectorIdSaIdEEEC2Ev,"axG",@progbits,_ZNSaISt6vectorIdSaIdEEEC5Ev,comdat
	.align 2
	.weak	_ZNSaISt6vectorIdSaIdEEEC2Ev
	.type	_ZNSaISt6vectorIdSaIdEEEC2Ev, @function
_ZNSaISt6vectorIdSaIdEEEC2Ev:
.LFB3692:
	.cfi_startproc
	endbr64
	pushq	%rbp
	.cfi_def_cfa_offset 16
	.cfi_offset 6, -16
	movq	%rsp, %rbp
	.cfi_def_cfa_register 6
	subq	$16, %rsp
	movq	%rdi, -8(%rbp)
	movq	-8(%rbp), %rax
	movq	%rax, %rdi
	call	_ZN9__gnu_cxx13new_allocatorISt6vectorIdSaIdEEEC2Ev
	nop
	leave
	.cfi_def_cfa 7, 8
	ret
	.cfi_endproc
.LFE3692:
	.size	_ZNSaISt6vectorIdSaIdEEEC2Ev, .-_ZNSaISt6vectorIdSaIdEEEC2Ev
	.weak	_ZNSaISt6vectorIdSaIdEEEC1Ev
	.set	_ZNSaISt6vectorIdSaIdEEEC1Ev,_ZNSaISt6vectorIdSaIdEEEC2Ev
	.section	.text._ZNSaISt6vectorIdSaIdEEED2Ev,"axG",@progbits,_ZNSaISt6vectorIdSaIdEEED5Ev,comdat
	.align 2
	.weak	_ZNSaISt6vectorIdSaIdEEED2Ev
	.type	_ZNSaISt6vectorIdSaIdEEED2Ev, @function
_ZNSaISt6vectorIdSaIdEEED2Ev:
.LFB3695:
	.cfi_startproc
	endbr64
	pushq	%rbp
	.cfi_def_cfa_offset 16
	.cfi_offset 6, -16
	movq	%rsp, %rbp
	.cfi_def_cfa_register 6
	subq	$16, %rsp
	movq	%rdi, -8(%rbp)
	movq	-8(%rbp), %rax
	movq	%rax, %rdi
	call	_ZN9__gnu_cxx13new_allocatorISt6vectorIdSaIdEEED2Ev
	nop
	leave
	.cfi_def_cfa 7, 8
	ret
	.cfi_endproc
.LFE3695:
	.size	_ZNSaISt6vectorIdSaIdEEED2Ev, .-_ZNSaISt6vectorIdSaIdEEED2Ev
	.weak	_ZNSaISt6vectorIdSaIdEEED1Ev
	.set	_ZNSaISt6vectorIdSaIdEEED1Ev,_ZNSaISt6vectorIdSaIdEEED2Ev
	.section	.text._ZNSt6vectorIS_IdSaIdEESaIS1_EEC2ESt16initializer_listIS1_ERKS2_,"axG",@progbits,_ZNSt6vectorIS_IdSaIdEESaIS1_EEC5ESt16initializer_listIS1_ERKS2_,comdat
	.align 2
	.weak	_ZNSt6vectorIS_IdSaIdEESaIS1_EEC2ESt16initializer_listIS1_ERKS2_
	.type	_ZNSt6vectorIS_IdSaIdEESaIS1_EEC2ESt16initializer_listIS1_ERKS2_, @function
_ZNSt6vectorIS_IdSaIdEESaIS1_EEC2ESt16initializer_listIS1_ERKS2_:
.LFB3698:
	.cfi_startproc
	.cfi_personality 0x9b,DW.ref.__gxx_personality_v0
	.cfi_lsda 0x1b,.LLSDA3698
	endbr64
	pushq	%rbp
	.cfi_def_cfa_offset 16
	.cfi_offset 6, -16
	movq	%rsp, %rbp
	.cfi_def_cfa_register 6
	pushq	%rbx
	subq	$56, %rsp
	.cfi_offset 3, -24
	movq	%rdi, -40(%rbp)
	movq	%rsi, %rax
	movq	%rdx, %rsi
	movq	%rsi, %rdx
	movq	%rax, -64(%rbp)
	movq	%rdx, -56(%rbp)
	movq	%rcx, -48(%rbp)
	movq	%fs:40, %rax
	movq	%rax, -24(%rbp)
	xorl	%eax, %eax
	movq	-40(%rbp), %rax
	movq	-48(%rbp), %rdx
	movq	%rdx, %rsi
	movq	%rax, %rdi
	call	_ZNSt12_Vector_baseISt6vectorIdSaIdEESaIS2_EEC2ERKS3_
	leaq	-64(%rbp), %rax
	movq	%rax, %rdi
	call	_ZNKSt16initializer_listISt6vectorIdSaIdEEE3endEv
	movq	%rax, %rbx
	leaq	-64(%rbp), %rax
	movq	%rax, %rdi
	call	_ZNKSt16initializer_listISt6vectorIdSaIdEEE5beginEv
	movq	%rax, %rcx
	movq	-40(%rbp), %rax
	movq	%rbx, %rdx
	movq	%rcx, %rsi
	movq	%rax, %rdi
.LEHB154:
	call	_ZNSt6vectorIS_IdSaIdEESaIS1_EE19_M_range_initializeIPKS1_EEvT_S7_St20forward_iterator_tag
.LEHE154:
	jmp	.L385
.L384:
	endbr64
	movq	%rax, %rbx
	movq	-40(%rbp), %rax
	movq	%rax, %rdi
	call	_ZNSt12_Vector_baseISt6vectorIdSaIdEESaIS2_EED2Ev
	movq	%rbx, %rax
	movq	%rax, %rdi
.LEHB155:
	call	_Unwind_Resume@PLT
.LEHE155:
.L385:
	movq	-24(%rbp), %rax
	subq	%fs:40, %rax
	je	.L383
	call	__stack_chk_fail@PLT
.L383:
	movq	-8(%rbp), %rbx
	leave
	.cfi_def_cfa 7, 8
	ret
	.cfi_endproc
.LFE3698:
	.section	.gcc_except_table
.LLSDA3698:
	.byte	0xff
	.byte	0xff
	.byte	0x1
	.uleb128 .LLSDACSE3698-.LLSDACSB3698
.LLSDACSB3698:
	.uleb128 .LEHB154-.LFB3698
	.uleb128 .LEHE154-.LEHB154
	.uleb128 .L384-.LFB3698
	.uleb128 0
	.uleb128 .LEHB155-.LFB3698
	.uleb128 .LEHE155-.LEHB155
	.uleb128 0
	.uleb128 0
.LLSDACSE3698:
	.section	.text._ZNSt6vectorIS_IdSaIdEESaIS1_EEC2ESt16initializer_listIS1_ERKS2_,"axG",@progbits,_ZNSt6vectorIS_IdSaIdEESaIS1_EEC5ESt16initializer_listIS1_ERKS2_,comdat
	.size	_ZNSt6vectorIS_IdSaIdEESaIS1_EEC2ESt16initializer_listIS1_ERKS2_, .-_ZNSt6vectorIS_IdSaIdEESaIS1_EEC2ESt16initializer_listIS1_ERKS2_
	.weak	_ZNSt6vectorIS_IdSaIdEESaIS1_EEC1ESt16initializer_listIS1_ERKS2_
	.set	_ZNSt6vectorIS_IdSaIdEESaIS1_EEC1ESt16initializer_listIS1_ERKS2_,_ZNSt6vectorIS_IdSaIdEESaIS1_EEC2ESt16initializer_listIS1_ERKS2_
	.section	.text._ZNSt6vectorIS_IdSaIdEESaIS1_EED2Ev,"axG",@progbits,_ZNSt6vectorIS_IdSaIdEESaIS1_EED5Ev,comdat
	.align 2
	.weak	_ZNSt6vectorIS_IdSaIdEESaIS1_EED2Ev
	.type	_ZNSt6vectorIS_IdSaIdEESaIS1_EED2Ev, @function
_ZNSt6vectorIS_IdSaIdEESaIS1_EED2Ev:
.LFB3701:
	.cfi_startproc
	.cfi_personality 0x9b,DW.ref.__gxx_personality_v0
	.cfi_lsda 0x1b,.LLSDA3701
	endbr64
	pushq	%rbp
	.cfi_def_cfa_offset 16
	.cfi_offset 6, -16
	movq	%rsp, %rbp
	.cfi_def_cfa_register 6
	subq	$16, %rsp
	movq	%rdi, -8(%rbp)
	movq	-8(%rbp), %rax
	movq	%rax, %rdi
	call	_ZNSt12_Vector_baseISt6vectorIdSaIdEESaIS2_EE19_M_get_Tp_allocatorEv
	movq	%rax, %rdx
	movq	-8(%rbp), %rax
	movq	8(%rax), %rcx
	movq	-8(%rbp), %rax
	movq	(%rax), %rax
	movq	%rcx, %rsi
	movq	%rax, %rdi
	call	_ZSt8_DestroyIPSt6vectorIdSaIdEES2_EvT_S4_RSaIT0_E
	movq	-8(%rbp), %rax
	movq	%rax, %rdi
	call	_ZNSt12_Vector_baseISt6vectorIdSaIdEESaIS2_EED2Ev
	nop
	leave
	.cfi_def_cfa 7, 8
	ret
	.cfi_endproc
.LFE3701:
	.section	.gcc_except_table
.LLSDA3701:
	.byte	0xff
	.byte	0xff
	.byte	0x1
	.uleb128 .LLSDACSE3701-.LLSDACSB3701
.LLSDACSB3701:
.LLSDACSE3701:
	.section	.text._ZNSt6vectorIS_IdSaIdEESaIS1_EED2Ev,"axG",@progbits,_ZNSt6vectorIS_IdSaIdEESaIS1_EED5Ev,comdat
	.size	_ZNSt6vectorIS_IdSaIdEESaIS1_EED2Ev, .-_ZNSt6vectorIS_IdSaIdEESaIS1_EED2Ev
	.weak	_ZNSt6vectorIS_IdSaIdEESaIS1_EED1Ev
	.set	_ZNSt6vectorIS_IdSaIdEESaIS1_EED1Ev,_ZNSt6vectorIS_IdSaIdEESaIS1_EED2Ev
	.section	.text._ZNSt12_Vector_baseISt6vectorIdSaIdEESaIS2_EE12_Vector_implC2Ev,"axG",@progbits,_ZNSt12_Vector_baseISt6vectorIdSaIdEESaIS2_EE12_Vector_implC5Ev,comdat
	.align 2
	.weak	_ZNSt12_Vector_baseISt6vectorIdSaIdEESaIS2_EE12_Vector_implC2Ev
	.type	_ZNSt12_Vector_baseISt6vectorIdSaIdEESaIS2_EE12_Vector_implC2Ev, @function
_ZNSt12_Vector_baseISt6vectorIdSaIdEESaIS2_EE12_Vector_implC2Ev:
.LFB3704:
	.cfi_startproc
	endbr64
	pushq	%rbp
	.cfi_def_cfa_offset 16
	.cfi_offset 6, -16
	movq	%rsp, %rbp
	.cfi_def_cfa_register 6
	subq	$16, %rsp
	movq	%rdi, -8(%rbp)
	movq	-8(%rbp), %rax
	movq	%rax, %rdi
	call	_ZNSaISt6vectorIdSaIdEEEC2Ev
	movq	-8(%rbp), %rax
	movq	%rax, %rdi
	call	_ZNSt12_Vector_baseISt6vectorIdSaIdEESaIS2_EE17_Vector_impl_dataC2Ev
	nop
	leave
	.cfi_def_cfa 7, 8
	ret
	.cfi_endproc
.LFE3704:
	.size	_ZNSt12_Vector_baseISt6vectorIdSaIdEESaIS2_EE12_Vector_implC2Ev, .-_ZNSt12_Vector_baseISt6vectorIdSaIdEESaIS2_EE12_Vector_implC2Ev
	.weak	_ZNSt12_Vector_baseISt6vectorIdSaIdEESaIS2_EE12_Vector_implC1Ev
	.set	_ZNSt12_Vector_baseISt6vectorIdSaIdEESaIS2_EE12_Vector_implC1Ev,_ZNSt12_Vector_baseISt6vectorIdSaIdEESaIS2_EE12_Vector_implC2Ev
	.section	.text._ZNSt12_Vector_baseISt6vectorIdSaIdEESaIS2_EED2Ev,"axG",@progbits,_ZNSt12_Vector_baseISt6vectorIdSaIdEESaIS2_EED5Ev,comdat
	.align 2
	.weak	_ZNSt12_Vector_baseISt6vectorIdSaIdEESaIS2_EED2Ev
	.type	_ZNSt12_Vector_baseISt6vectorIdSaIdEESaIS2_EED2Ev, @function
_ZNSt12_Vector_baseISt6vectorIdSaIdEESaIS2_EED2Ev:
.LFB3707:
	.cfi_startproc
	.cfi_personality 0x9b,DW.ref.__gxx_personality_v0
	.cfi_lsda 0x1b,.LLSDA3707
	endbr64
	pushq	%rbp
	.cfi_def_cfa_offset 16
	.cfi_offset 6, -16
	movq	%rsp, %rbp
	.cfi_def_cfa_register 6
	subq	$16, %rsp
	movq	%rdi, -8(%rbp)
	movq	-8(%rbp), %rax
	movq	16(%rax), %rdx
	movq	-8(%rbp), %rax
	movq	(%rax), %rcx
	movq	%rdx, %rax
	subq	%rcx, %rax
	sarq	$3, %rax
	movq	%rax, %rdx
	movabsq	$-6148914691236517205, %rax
	imulq	%rdx, %rax
	movq	%rax, %rdx
	movq	-8(%rbp), %rax
	movq	(%rax), %rcx
	movq	-8(%rbp), %rax
	movq	%rcx, %rsi
	movq	%rax, %rdi
	call	_ZNSt12_Vector_baseISt6vectorIdSaIdEESaIS2_EE13_M_deallocateEPS2_m
	movq	-8(%rbp), %rax
	movq	%rax, %rdi
	call	_ZNSt12_Vector_baseISt6vectorIdSaIdEESaIS2_EE12_Vector_implD1Ev
	nop
	leave
	.cfi_def_cfa 7, 8
	ret
	.cfi_endproc
.LFE3707:
	.section	.gcc_except_table
.LLSDA3707:
	.byte	0xff
	.byte	0xff
	.byte	0x1
	.uleb128 .LLSDACSE3707-.LLSDACSB3707
.LLSDACSB3707:
.LLSDACSE3707:
	.section	.text._ZNSt12_Vector_baseISt6vectorIdSaIdEESaIS2_EED2Ev,"axG",@progbits,_ZNSt12_Vector_baseISt6vectorIdSaIdEESaIS2_EED5Ev,comdat
	.size	_ZNSt12_Vector_baseISt6vectorIdSaIdEESaIS2_EED2Ev, .-_ZNSt12_Vector_baseISt6vectorIdSaIdEESaIS2_EED2Ev
	.weak	_ZNSt12_Vector_baseISt6vectorIdSaIdEESaIS2_EED1Ev
	.set	_ZNSt12_Vector_baseISt6vectorIdSaIdEESaIS2_EED1Ev,_ZNSt12_Vector_baseISt6vectorIdSaIdEESaIS2_EED2Ev
	.section	.text._ZNSt6vectorIS_IdSaIdEESaIS1_EE5beginEv,"axG",@progbits,_ZNSt6vectorIS_IdSaIdEESaIS1_EE5beginEv,comdat
	.align 2
	.weak	_ZNSt6vectorIS_IdSaIdEESaIS1_EE5beginEv
	.type	_ZNSt6vectorIS_IdSaIdEESaIS1_EE5beginEv, @function
_ZNSt6vectorIS_IdSaIdEESaIS1_EE5beginEv:
.LFB3709:
	.cfi_startproc
	endbr64
	pushq	%rbp
	.cfi_def_cfa_offset 16
	.cfi_offset 6, -16
	movq	%rsp, %rbp
	.cfi_def_cfa_register 6
	subq	$32, %rsp
	movq	%rdi, -24(%rbp)
	movq	%fs:40, %rax
	movq	%rax, -8(%rbp)
	xorl	%eax, %eax
	movq	-24(%rbp), %rdx
	leaq	-16(%rbp), %rax
	movq	%rdx, %rsi
	movq	%rax, %rdi
	call	_ZN9__gnu_cxx17__normal_iteratorIPSt6vectorIdSaIdEES1_IS3_SaIS3_EEEC1ERKS4_
	movq	-16(%rbp), %rax
	movq	-8(%rbp), %rdx
	subq	%fs:40, %rdx
	je	.L391
	call	__stack_chk_fail@PLT
.L391:
	leave
	.cfi_def_cfa 7, 8
	ret
	.cfi_endproc
.LFE3709:
	.size	_ZNSt6vectorIS_IdSaIdEESaIS1_EE5beginEv, .-_ZNSt6vectorIS_IdSaIdEESaIS1_EE5beginEv
	.section	.text._ZNSt6vectorIS_IdSaIdEESaIS1_EE3endEv,"axG",@progbits,_ZNSt6vectorIS_IdSaIdEESaIS1_EE3endEv,comdat
	.align 2
	.weak	_ZNSt6vectorIS_IdSaIdEESaIS1_EE3endEv
	.type	_ZNSt6vectorIS_IdSaIdEESaIS1_EE3endEv, @function
_ZNSt6vectorIS_IdSaIdEESaIS1_EE3endEv:
.LFB3710:
	.cfi_startproc
	endbr64
	pushq	%rbp
	.cfi_def_cfa_offset 16
	.cfi_offset 6, -16
	movq	%rsp, %rbp
	.cfi_def_cfa_register 6
	subq	$32, %rsp
	movq	%rdi, -24(%rbp)
	movq	%fs:40, %rax
	movq	%rax, -8(%rbp)
	xorl	%eax, %eax
	movq	-24(%rbp), %rax
	leaq	8(%rax), %rdx
	leaq	-16(%rbp), %rax
	movq	%rdx, %rsi
	movq	%rax, %rdi
	call	_ZN9__gnu_cxx17__normal_iteratorIPSt6vectorIdSaIdEES1_IS3_SaIS3_EEEC1ERKS4_
	movq	-16(%rbp), %rax
	movq	-8(%rbp), %rdx
	subq	%fs:40, %rdx
	je	.L394
	call	__stack_chk_fail@PLT
.L394:
	leave
	.cfi_def_cfa 7, 8
	ret
	.cfi_endproc
.LFE3710:
	.size	_ZNSt6vectorIS_IdSaIdEESaIS1_EE3endEv, .-_ZNSt6vectorIS_IdSaIdEESaIS1_EE3endEv
	.section	.text._ZN9__gnu_cxxneIPSt6vectorIdSaIdEES1_IS3_SaIS3_EEEEbRKNS_17__normal_iteratorIT_T0_EESC_,"axG",@progbits,_ZN9__gnu_cxxneIPSt6vectorIdSaIdEES1_IS3_SaIS3_EEEEbRKNS_17__normal_iteratorIT_T0_EESC_,comdat
	.weak	_ZN9__gnu_cxxneIPSt6vectorIdSaIdEES1_IS3_SaIS3_EEEEbRKNS_17__normal_iteratorIT_T0_EESC_
	.type	_ZN9__gnu_cxxneIPSt6vectorIdSaIdEES1_IS3_SaIS3_EEEEbRKNS_17__normal_iteratorIT_T0_EESC_, @function
_ZN9__gnu_cxxneIPSt6vectorIdSaIdEES1_IS3_SaIS3_EEEEbRKNS_17__normal_iteratorIT_T0_EESC_:
.LFB3711:
	.cfi_startproc
	endbr64
	pushq	%rbp
	.cfi_def_cfa_offset 16
	.cfi_offset 6, -16
	movq	%rsp, %rbp
	.cfi_def_cfa_register 6
	pushq	%rbx
	subq	$24, %rsp
	.cfi_offset 3, -24
	movq	%rdi, -24(%rbp)
	movq	%rsi, -32(%rbp)
	movq	-24(%rbp), %rax
	movq	%rax, %rdi
	call	_ZNK9__gnu_cxx17__normal_iteratorIPSt6vectorIdSaIdEES1_IS3_SaIS3_EEE4baseEv
	movq	(%rax), %rbx
	movq	-32(%rbp), %rax
	movq	%rax, %rdi
	call	_ZNK9__gnu_cxx17__normal_iteratorIPSt6vectorIdSaIdEES1_IS3_SaIS3_EEE4baseEv
	movq	(%rax), %rax
	cmpq	%rax, %rbx
	setne	%al
	movq	-8(%rbp), %rbx
	leave
	.cfi_def_cfa 7, 8
	ret
	.cfi_endproc
.LFE3711:
	.size	_ZN9__gnu_cxxneIPSt6vectorIdSaIdEES1_IS3_SaIS3_EEEEbRKNS_17__normal_iteratorIT_T0_EESC_, .-_ZN9__gnu_cxxneIPSt6vectorIdSaIdEES1_IS3_SaIS3_EEEEbRKNS_17__normal_iteratorIT_T0_EESC_
	.section	.text._ZN9__gnu_cxx17__normal_iteratorIPSt6vectorIdSaIdEES1_IS3_SaIS3_EEEppEv,"axG",@progbits,_ZN9__gnu_cxx17__normal_iteratorIPSt6vectorIdSaIdEES1_IS3_SaIS3_EEEppEv,comdat
	.align 2
	.weak	_ZN9__gnu_cxx17__normal_iteratorIPSt6vectorIdSaIdEES1_IS3_SaIS3_EEEppEv
	.type	_ZN9__gnu_cxx17__normal_iteratorIPSt6vectorIdSaIdEES1_IS3_SaIS3_EEEppEv, @function
_ZN9__gnu_cxx17__normal_iteratorIPSt6vectorIdSaIdEES1_IS3_SaIS3_EEEppEv:
.LFB3712:
	.cfi_startproc
	endbr64
	pushq	%rbp
	.cfi_def_cfa_offset 16
	.cfi_offset 6, -16
	movq	%rsp, %rbp
	.cfi_def_cfa_register 6
	movq	%rdi, -8(%rbp)
	movq	-8(%rbp), %rax
	movq	(%rax), %rax
	leaq	24(%rax), %rdx
	movq	-8(%rbp), %rax
	movq	%rdx, (%rax)
	movq	-8(%rbp), %rax
	popq	%rbp
	.cfi_def_cfa 7, 8
	ret
	.cfi_endproc
.LFE3712:
	.size	_ZN9__gnu_cxx17__normal_iteratorIPSt6vectorIdSaIdEES1_IS3_SaIS3_EEEppEv, .-_ZN9__gnu_cxx17__normal_iteratorIPSt6vectorIdSaIdEES1_IS3_SaIS3_EEEppEv
	.section	.text._ZNK9__gnu_cxx17__normal_iteratorIPSt6vectorIdSaIdEES1_IS3_SaIS3_EEEdeEv,"axG",@progbits,_ZNK9__gnu_cxx17__normal_iteratorIPSt6vectorIdSaIdEES1_IS3_SaIS3_EEEdeEv,comdat
	.align 2
	.weak	_ZNK9__gnu_cxx17__normal_iteratorIPSt6vectorIdSaIdEES1_IS3_SaIS3_EEEdeEv
	.type	_ZNK9__gnu_cxx17__normal_iteratorIPSt6vectorIdSaIdEES1_IS3_SaIS3_EEEdeEv, @function
_ZNK9__gnu_cxx17__normal_iteratorIPSt6vectorIdSaIdEES1_IS3_SaIS3_EEEdeEv:
.LFB3713:
	.cfi_startproc
	endbr64
	pushq	%rbp
	.cfi_def_cfa_offset 16
	.cfi_offset 6, -16
	movq	%rsp, %rbp
	.cfi_def_cfa_register 6
	movq	%rdi, -8(%rbp)
	movq	-8(%rbp), %rax
	movq	(%rax), %rax
	popq	%rbp
	.cfi_def_cfa 7, 8
	ret
	.cfi_endproc
.LFE3713:
	.size	_ZNK9__gnu_cxx17__normal_iteratorIPSt6vectorIdSaIdEES1_IS3_SaIS3_EEEdeEv, .-_ZNK9__gnu_cxx17__normal_iteratorIPSt6vectorIdSaIdEES1_IS3_SaIS3_EEEdeEv
	.section	.text._ZNSt6vectorIdSaIdEEC2ERKS1_,"axG",@progbits,_ZNSt6vectorIdSaIdEEC5ERKS1_,comdat
	.align 2
	.weak	_ZNSt6vectorIdSaIdEEC2ERKS1_
	.type	_ZNSt6vectorIdSaIdEEC2ERKS1_, @function
_ZNSt6vectorIdSaIdEEC2ERKS1_:
.LFB3715:
	.cfi_startproc
	.cfi_personality 0x9b,DW.ref.__gxx_personality_v0
	.cfi_lsda 0x1b,.LLSDA3715
	endbr64
	pushq	%rbp
	.cfi_def_cfa_offset 16
	.cfi_offset 6, -16
	movq	%rsp, %rbp
	.cfi_def_cfa_register 6
	pushq	%r13
	pushq	%r12
	pushq	%rbx
	subq	$40, %rsp
	.cfi_offset 13, -24
	.cfi_offset 12, -32
	.cfi_offset 3, -40
	movq	%rdi, -56(%rbp)
	movq	%rsi, -64(%rbp)
	movq	%fs:40, %rax
	movq	%rax, -40(%rbp)
	xorl	%eax, %eax
	movq	-56(%rbp), %rbx
	movq	-64(%rbp), %rax
	movq	%rax, %rdi
	call	_ZNKSt12_Vector_baseIdSaIdEE19_M_get_Tp_allocatorEv
	movq	%rax, %rdx
	leaq	-41(%rbp), %rax
	movq	%rdx, %rsi
	movq	%rax, %rdi
.LEHB156:
	call	_ZN9__gnu_cxx14__alloc_traitsISaIdEdE17_S_select_on_copyERKS1_
.LEHE156:
	movq	-64(%rbp), %rax
	movq	%rax, %rdi
	call	_ZNKSt6vectorIdSaIdEE4sizeEv
	movq	%rax, %rcx
	leaq	-41(%rbp), %rax
	movq	%rax, %rdx
	movq	%rcx, %rsi
	movq	%rbx, %rdi
.LEHB157:
	call	_ZNSt12_Vector_baseIdSaIdEEC2EmRKS0_
.LEHE157:
	leaq	-41(%rbp), %rax
	movq	%rax, %rdi
	call	_ZNSaIdED1Ev
	movq	-56(%rbp), %rax
	movq	%rax, %rdi
	call	_ZNSt12_Vector_baseIdSaIdEE19_M_get_Tp_allocatorEv
	movq	%rax, %r13
	movq	-56(%rbp), %rax
	movq	(%rax), %rbx
	movq	-64(%rbp), %rax
	movq	%rax, %rdi
	call	_ZNKSt6vectorIdSaIdEE3endEv
	movq	%rax, %r12
	movq	-64(%rbp), %rax
	movq	%rax, %rdi
	call	_ZNKSt6vectorIdSaIdEE5beginEv
	movq	%r13, %rcx
	movq	%rbx, %rdx
	movq	%r12, %rsi
	movq	%rax, %rdi
.LEHB158:
	call	_ZSt22__uninitialized_copy_aIN9__gnu_cxx17__normal_iteratorIPKdSt6vectorIdSaIdEEEEPddET0_T_SA_S9_RSaIT1_E
.LEHE158:
	movq	-56(%rbp), %rdx
	movq	%rax, 8(%rdx)
	nop
	movq	-40(%rbp), %rax
	subq	%fs:40, %rax
	je	.L404
	jmp	.L407
.L405:
	endbr64
	movq	%rax, %rbx
	leaq	-41(%rbp), %rax
	movq	%rax, %rdi
	call	_ZNSaIdED1Ev
	movq	%rbx, %rax
	movq	%rax, %rdi
.LEHB159:
	call	_Unwind_Resume@PLT
.L406:
	endbr64
	movq	%rax, %rbx
	movq	-56(%rbp), %rax
	movq	%rax, %rdi
	call	_ZNSt12_Vector_baseIdSaIdEED2Ev
	movq	%rbx, %rax
	movq	%rax, %rdi
	call	_Unwind_Resume@PLT
.LEHE159:
.L407:
	call	__stack_chk_fail@PLT
.L404:
	addq	$40, %rsp
	popq	%rbx
	popq	%r12
	popq	%r13
	popq	%rbp
	.cfi_def_cfa 7, 8
	ret
	.cfi_endproc
.LFE3715:
	.section	.gcc_except_table
.LLSDA3715:
	.byte	0xff
	.byte	0xff
	.byte	0x1
	.uleb128 .LLSDACSE3715-.LLSDACSB3715
.LLSDACSB3715:
	.uleb128 .LEHB156-.LFB3715
	.uleb128 .LEHE156-.LEHB156
	.uleb128 0
	.uleb128 0
	.uleb128 .LEHB157-.LFB3715
	.uleb128 .LEHE157-.LEHB157
	.uleb128 .L405-.LFB3715
	.uleb128 0
	.uleb128 .LEHB158-.LFB3715
	.uleb128 .LEHE158-.LEHB158
	.uleb128 .L406-.LFB3715
	.uleb128 0
	.uleb128 .LEHB159-.LFB3715
	.uleb128 .LEHE159-.LEHB159
	.uleb128 0
	.uleb128 0
.LLSDACSE3715:
	.section	.text._ZNSt6vectorIdSaIdEEC2ERKS1_,"axG",@progbits,_ZNSt6vectorIdSaIdEEC5ERKS1_,comdat
	.size	_ZNSt6vectorIdSaIdEEC2ERKS1_, .-_ZNSt6vectorIdSaIdEEC2ERKS1_
	.weak	_ZNSt6vectorIdSaIdEEC1ERKS1_
	.set	_ZNSt6vectorIdSaIdEEC1ERKS1_,_ZNSt6vectorIdSaIdEEC2ERKS1_
	.section	.text._ZNSt6vectorIdSaIdEEixEm,"axG",@progbits,_ZNSt6vectorIdSaIdEEixEm,comdat
	.align 2
	.weak	_ZNSt6vectorIdSaIdEEixEm
	.type	_ZNSt6vectorIdSaIdEEixEm, @function
_ZNSt6vectorIdSaIdEEixEm:
.LFB3717:
	.cfi_startproc
	endbr64
	pushq	%rbp
	.cfi_def_cfa_offset 16
	.cfi_offset 6, -16
	movq	%rsp, %rbp
	.cfi_def_cfa_register 6
	movq	%rdi, -8(%rbp)
	movq	%rsi, -16(%rbp)
	movq	-8(%rbp), %rax
	movq	(%rax), %rdx
	movq	-16(%rbp), %rax
	salq	$3, %rax
	addq	%rdx, %rax
	popq	%rbp
	.cfi_def_cfa 7, 8
	ret
	.cfi_endproc
.LFE3717:
	.size	_ZNSt6vectorIdSaIdEEixEm, .-_ZNSt6vectorIdSaIdEEixEm
	.section	.text._ZNSt6vectorIdSaIdEE9push_backEOd,"axG",@progbits,_ZNSt6vectorIdSaIdEE9push_backEOd,comdat
	.align 2
	.weak	_ZNSt6vectorIdSaIdEE9push_backEOd
	.type	_ZNSt6vectorIdSaIdEE9push_backEOd, @function
_ZNSt6vectorIdSaIdEE9push_backEOd:
.LFB3718:
	.cfi_startproc
	endbr64
	pushq	%rbp
	.cfi_def_cfa_offset 16
	.cfi_offset 6, -16
	movq	%rsp, %rbp
	.cfi_def_cfa_register 6
	subq	$16, %rsp
	movq	%rdi, -8(%rbp)
	movq	%rsi, -16(%rbp)
	movq	-16(%rbp), %rax
	movq	%rax, %rdi
	call	_ZSt4moveIRdEONSt16remove_referenceIT_E4typeEOS2_
	movq	%rax, %rdx
	movq	-8(%rbp), %rax
	movq	%rdx, %rsi
	movq	%rax, %rdi
	call	_ZNSt6vectorIdSaIdEE12emplace_backIJdEEEvDpOT_
	nop
	leave
	.cfi_def_cfa 7, 8
	ret
	.cfi_endproc
.LFE3718:
	.size	_ZNSt6vectorIdSaIdEE9push_backEOd, .-_ZNSt6vectorIdSaIdEE9push_backEOd
	.section	.text._ZNSt6vectorIdSaIdEE9push_backERKd,"axG",@progbits,_ZNSt6vectorIdSaIdEE9push_backERKd,comdat
	.align 2
	.weak	_ZNSt6vectorIdSaIdEE9push_backERKd
	.type	_ZNSt6vectorIdSaIdEE9push_backERKd, @function
_ZNSt6vectorIdSaIdEE9push_backERKd:
.LFB3719:
	.cfi_startproc
	endbr64
	pushq	%rbp
	.cfi_def_cfa_offset 16
	.cfi_offset 6, -16
	movq	%rsp, %rbp
	.cfi_def_cfa_register 6
	subq	$16, %rsp
	movq	%rdi, -8(%rbp)
	movq	%rsi, -16(%rbp)
	movq	-8(%rbp), %rax
	movq	8(%rax), %rdx
	movq	-8(%rbp), %rax
	movq	16(%rax), %rax
	cmpq	%rax, %rdx
	je	.L412
	movq	-8(%rbp), %rax
	movq	8(%rax), %rcx
	movq	-8(%rbp), %rax
	movq	-16(%rbp), %rdx
	movq	%rcx, %rsi
	movq	%rax, %rdi
	call	_ZNSt16allocator_traitsISaIdEE9constructIdJRKdEEEvRS0_PT_DpOT0_
	movq	-8(%rbp), %rax
	movq	8(%rax), %rax
	leaq	8(%rax), %rdx
	movq	-8(%rbp), %rax
	movq	%rdx, 8(%rax)
	jmp	.L414
.L412:
	movq	-8(%rbp), %rax
	movq	%rax, %rdi
	call	_ZNSt6vectorIdSaIdEE3endEv
	movq	%rax, %rcx
	movq	-16(%rbp), %rdx
	movq	-8(%rbp), %rax
	movq	%rcx, %rsi
	movq	%rax, %rdi
	call	_ZNSt6vectorIdSaIdEE17_M_realloc_insertIJRKdEEEvN9__gnu_cxx17__normal_iteratorIPdS1_EEDpOT_
.L414:
	nop
	leave
	.cfi_def_cfa 7, 8
	ret
	.cfi_endproc
.LFE3719:
	.size	_ZNSt6vectorIdSaIdEE9push_backERKd, .-_ZNSt6vectorIdSaIdEE9push_backERKd
	.section	.text._ZSt7forwardIRA6_KcEOT_RNSt16remove_referenceIS3_E4typeE,"axG",@progbits,_ZSt7forwardIRA6_KcEOT_RNSt16remove_referenceIS3_E4typeE,comdat
	.weak	_ZSt7forwardIRA6_KcEOT_RNSt16remove_referenceIS3_E4typeE
	.type	_ZSt7forwardIRA6_KcEOT_RNSt16remove_referenceIS3_E4typeE, @function
_ZSt7forwardIRA6_KcEOT_RNSt16remove_referenceIS3_E4typeE:
.LFB3725:
	.cfi_startproc
	endbr64
	pushq	%rbp
	.cfi_def_cfa_offset 16
	.cfi_offset 6, -16
	movq	%rsp, %rbp
	.cfi_def_cfa_register 6
	movq	%rdi, -8(%rbp)
	movq	-8(%rbp), %rax
	popq	%rbp
	.cfi_def_cfa 7, 8
	ret
	.cfi_endproc
.LFE3725:
	.size	_ZSt7forwardIRA6_KcEOT_RNSt16remove_referenceIS3_E4typeE, .-_ZSt7forwardIRA6_KcEOT_RNSt16remove_referenceIS3_E4typeE
	.section	.text._ZSt7forwardIRA5_KcEOT_RNSt16remove_referenceIS3_E4typeE,"axG",@progbits,_ZSt7forwardIRA5_KcEOT_RNSt16remove_referenceIS3_E4typeE,comdat
	.weak	_ZSt7forwardIRA5_KcEOT_RNSt16remove_referenceIS3_E4typeE
	.type	_ZSt7forwardIRA5_KcEOT_RNSt16remove_referenceIS3_E4typeE, @function
_ZSt7forwardIRA5_KcEOT_RNSt16remove_referenceIS3_E4typeE:
.LFB3726:
	.cfi_startproc
	endbr64
	pushq	%rbp
	.cfi_def_cfa_offset 16
	.cfi_offset 6, -16
	movq	%rsp, %rbp
	.cfi_def_cfa_register 6
	movq	%rdi, -8(%rbp)
	movq	-8(%rbp), %rax
	popq	%rbp
	.cfi_def_cfa 7, 8
	ret
	.cfi_endproc
.LFE3726:
	.size	_ZSt7forwardIRA5_KcEOT_RNSt16remove_referenceIS3_E4typeE, .-_ZSt7forwardIRA5_KcEOT_RNSt16remove_referenceIS3_E4typeE
	.section	.text._ZSt7forwardIRA10_KcEOT_RNSt16remove_referenceIS3_E4typeE,"axG",@progbits,_ZSt7forwardIRA10_KcEOT_RNSt16remove_referenceIS3_E4typeE,comdat
	.weak	_ZSt7forwardIRA10_KcEOT_RNSt16remove_referenceIS3_E4typeE
	.type	_ZSt7forwardIRA10_KcEOT_RNSt16remove_referenceIS3_E4typeE, @function
_ZSt7forwardIRA10_KcEOT_RNSt16remove_referenceIS3_E4typeE:
.LFB3727:
	.cfi_startproc
	endbr64
	pushq	%rbp
	.cfi_def_cfa_offset 16
	.cfi_offset 6, -16
	movq	%rsp, %rbp
	.cfi_def_cfa_register 6
	movq	%rdi, -8(%rbp)
	movq	-8(%rbp), %rax
	popq	%rbp
	.cfi_def_cfa 7, 8
	ret
	.cfi_endproc
.LFE3727:
	.size	_ZSt7forwardIRA10_KcEOT_RNSt16remove_referenceIS3_E4typeE, .-_ZSt7forwardIRA10_KcEOT_RNSt16remove_referenceIS3_E4typeE
	.section	.text._ZSt7forwardIRA2_KcEOT_RNSt16remove_referenceIS3_E4typeE,"axG",@progbits,_ZSt7forwardIRA2_KcEOT_RNSt16remove_referenceIS3_E4typeE,comdat
	.weak	_ZSt7forwardIRA2_KcEOT_RNSt16remove_referenceIS3_E4typeE
	.type	_ZSt7forwardIRA2_KcEOT_RNSt16remove_referenceIS3_E4typeE, @function
_ZSt7forwardIRA2_KcEOT_RNSt16remove_referenceIS3_E4typeE:
.LFB3728:
	.cfi_startproc
	endbr64
	pushq	%rbp
	.cfi_def_cfa_offset 16
	.cfi_offset 6, -16
	movq	%rsp, %rbp
	.cfi_def_cfa_register 6
	movq	%rdi, -8(%rbp)
	movq	-8(%rbp), %rax
	popq	%rbp
	.cfi_def_cfa 7, 8
	ret
	.cfi_endproc
.LFE3728:
	.size	_ZSt7forwardIRA2_KcEOT_RNSt16remove_referenceIS3_E4typeE, .-_ZSt7forwardIRA2_KcEOT_RNSt16remove_referenceIS3_E4typeE
	.section	.text._ZNSaISt4pairIKNSt7__cxx1112basic_stringIcSt11char_traitsIcESaIcEEES5_EEC2Ev,"axG",@progbits,_ZNSaISt4pairIKNSt7__cxx1112basic_stringIcSt11char_traitsIcESaIcEEES5_EEC5Ev,comdat
	.align 2
	.weak	_ZNSaISt4pairIKNSt7__cxx1112basic_stringIcSt11char_traitsIcESaIcEEES5_EEC2Ev
	.type	_ZNSaISt4pairIKNSt7__cxx1112basic_stringIcSt11char_traitsIcESaIcEEES5_EEC2Ev, @function
_ZNSaISt4pairIKNSt7__cxx1112basic_stringIcSt11char_traitsIcESaIcEEES5_EEC2Ev:
.LFB3730:
	.cfi_startproc
	endbr64
	pushq	%rbp
	.cfi_def_cfa_offset 16
	.cfi_offset 6, -16
	movq	%rsp, %rbp
	.cfi_def_cfa_register 6
	subq	$16, %rsp
	movq	%rdi, -8(%rbp)
	movq	-8(%rbp), %rax
	movq	%rax, %rdi
	call	_ZN9__gnu_cxx13new_allocatorISt4pairIKNSt7__cxx1112basic_stringIcSt11char_traitsIcESaIcEEES7_EEC2Ev
	nop
	leave
	.cfi_def_cfa 7, 8
	ret
	.cfi_endproc
.LFE3730:
	.size	_ZNSaISt4pairIKNSt7__cxx1112basic_stringIcSt11char_traitsIcESaIcEEES5_EEC2Ev, .-_ZNSaISt4pairIKNSt7__cxx1112basic_stringIcSt11char_traitsIcESaIcEEES5_EEC2Ev
	.weak	_ZNSaISt4pairIKNSt7__cxx1112basic_stringIcSt11char_traitsIcESaIcEEES5_EEC1Ev
	.set	_ZNSaISt4pairIKNSt7__cxx1112basic_stringIcSt11char_traitsIcESaIcEEES5_EEC1Ev,_ZNSaISt4pairIKNSt7__cxx1112basic_stringIcSt11char_traitsIcESaIcEEES5_EEC2Ev
	.section	.text._ZNSaISt4pairIKNSt7__cxx1112basic_stringIcSt11char_traitsIcESaIcEEES5_EED2Ev,"axG",@progbits,_ZNSaISt4pairIKNSt7__cxx1112basic_stringIcSt11char_traitsIcESaIcEEES5_EED5Ev,comdat
	.align 2
	.weak	_ZNSaISt4pairIKNSt7__cxx1112basic_stringIcSt11char_traitsIcESaIcEEES5_EED2Ev
	.type	_ZNSaISt4pairIKNSt7__cxx1112basic_stringIcSt11char_traitsIcESaIcEEES5_EED2Ev, @function
_ZNSaISt4pairIKNSt7__cxx1112basic_stringIcSt11char_traitsIcESaIcEEES5_EED2Ev:
.LFB3733:
	.cfi_startproc
	endbr64
	pushq	%rbp
	.cfi_def_cfa_offset 16
	.cfi_offset 6, -16
	movq	%rsp, %rbp
	.cfi_def_cfa_register 6
	subq	$16, %rsp
	movq	%rdi, -8(%rbp)
	movq	-8(%rbp), %rax
	movq	%rax, %rdi
	call	_ZN9__gnu_cxx13new_allocatorISt4pairIKNSt7__cxx1112basic_stringIcSt11char_traitsIcESaIcEEES7_EED2Ev
	nop
	leave
	.cfi_def_cfa 7, 8
	ret
	.cfi_endproc
.LFE3733:
	.size	_ZNSaISt4pairIKNSt7__cxx1112basic_stringIcSt11char_traitsIcESaIcEEES5_EED2Ev, .-_ZNSaISt4pairIKNSt7__cxx1112basic_stringIcSt11char_traitsIcESaIcEEES5_EED2Ev
	.weak	_ZNSaISt4pairIKNSt7__cxx1112basic_stringIcSt11char_traitsIcESaIcEEES5_EED1Ev
	.set	_ZNSaISt4pairIKNSt7__cxx1112basic_stringIcSt11char_traitsIcESaIcEEES5_EED1Ev,_ZNSaISt4pairIKNSt7__cxx1112basic_stringIcSt11char_traitsIcESaIcEEES5_EED2Ev
	.section	.text._ZNSt3mapINSt7__cxx1112basic_stringIcSt11char_traitsIcESaIcEEES5_St4lessIS5_ESaISt4pairIKS5_S5_EEEC2ESt16initializer_listISA_ERKS7_RKSB_,"axG",@progbits,_ZNSt3mapINSt7__cxx1112basic_stringIcSt11char_traitsIcESaIcEEES5_St4lessIS5_ESaISt4pairIKS5_S5_EEEC5ESt16initializer_listISA_ERKS7_RKSB_,comdat
	.align 2
	.weak	_ZNSt3mapINSt7__cxx1112basic_stringIcSt11char_traitsIcESaIcEEES5_St4lessIS5_ESaISt4pairIKS5_S5_EEEC2ESt16initializer_listISA_ERKS7_RKSB_
	.type	_ZNSt3mapINSt7__cxx1112basic_stringIcSt11char_traitsIcESaIcEEES5_St4lessIS5_ESaISt4pairIKS5_S5_EEEC2ESt16initializer_listISA_ERKS7_RKSB_, @function
_ZNSt3mapINSt7__cxx1112basic_stringIcSt11char_traitsIcESaIcEEES5_St4lessIS5_ESaISt4pairIKS5_S5_EEEC2ESt16initializer_listISA_ERKS7_RKSB_:
.LFB3736:
	.cfi_startproc
	.cfi_personality 0x9b,DW.ref.__gxx_personality_v0
	.cfi_lsda 0x1b,.LLSDA3736
	endbr64
	pushq	%rbp
	.cfi_def_cfa_offset 16
	.cfi_offset 6, -16
	movq	%rsp, %rbp
	.cfi_def_cfa_register 6
	pushq	%r12
	pushq	%rbx
	subq	$64, %rsp
	.cfi_offset 12, -24
	.cfi_offset 3, -32
	movq	%rdi, -40(%rbp)
	movq	%rsi, %rax
	movq	%rdx, %rsi
	movq	%rsi, %rdx
	movq	%rax, -64(%rbp)
	movq	%rdx, -56(%rbp)
	movq	%rcx, -48(%rbp)
	movq	%r8, -72(%rbp)
	movq	%fs:40, %rax
	movq	%rax, -24(%rbp)
	xorl	%eax, %eax
	movq	-40(%rbp), %rbx
	movq	-72(%rbp), %rdx
	leaq	-25(%rbp), %rax
	movq	%rdx, %rsi
	movq	%rax, %rdi
	call	_ZNSaISt4pairIKNSt7__cxx1112basic_stringIcSt11char_traitsIcESaIcEEES5_EEC1ERKS8_
	leaq	-25(%rbp), %rdx
	movq	-48(%rbp), %rax
	movq	%rax, %rsi
	movq	%rbx, %rdi
.LEHB160:
	call	_ZNSt8_Rb_treeINSt7__cxx1112basic_stringIcSt11char_traitsIcESaIcEEESt4pairIKS5_S5_ESt10_Select1stIS8_ESt4lessIS5_ESaIS8_EEC1ERKSC_RKSD_
.LEHE160:
	leaq	-25(%rbp), %rax
	movq	%rax, %rdi
	call	_ZNSaISt4pairIKNSt7__cxx1112basic_stringIcSt11char_traitsIcESaIcEEES5_EED1Ev
	movq	-40(%rbp), %rbx
	leaq	-64(%rbp), %rax
	movq	%rax, %rdi
	call	_ZNKSt16initializer_listISt4pairIKNSt7__cxx1112basic_stringIcSt11char_traitsIcESaIcEEES6_EE3endEv
	movq	%rax, %r12
	leaq	-64(%rbp), %rax
	movq	%rax, %rdi
	call	_ZNKSt16initializer_listISt4pairIKNSt7__cxx1112basic_stringIcSt11char_traitsIcESaIcEEES6_EE5beginEv
	movq	%r12, %rdx
	movq	%rax, %rsi
	movq	%rbx, %rdi
.LEHB161:
	call	_ZNSt8_Rb_treeINSt7__cxx1112basic_stringIcSt11char_traitsIcESaIcEEESt4pairIKS5_S5_ESt10_Select1stIS8_ESt4lessIS5_ESaIS8_EE22_M_insert_range_uniqueIPKS8_EENSt9enable_ifIXsrSt7is_sameIS8_NSt15iterator_traitsIT_E10value_typeEE5valueEvE4typeESL_SL_
.LEHE161:
	jmp	.L431
.L429:
	endbr64
	movq	%rax, %rbx
	leaq	-25(%rbp), %rax
	movq	%rax, %rdi
	call	_ZNSaISt4pairIKNSt7__cxx1112basic_stringIcSt11char_traitsIcESaIcEEES5_EED1Ev
	movq	%rbx, %rax
	movq	%rax, %rdi
.LEHB162:
	call	_Unwind_Resume@PLT
.L430:
	endbr64
	movq	%rax, %rbx
	movq	-40(%rbp), %rax
	movq	%rax, %rdi
	call	_ZNSt8_Rb_treeINSt7__cxx1112basic_stringIcSt11char_traitsIcESaIcEEESt4pairIKS5_S5_ESt10_Select1stIS8_ESt4lessIS5_ESaIS8_EED1Ev
	movq	%rbx, %rax
	movq	%rax, %rdi
	call	_Unwind_Resume@PLT
.LEHE162:
.L431:
	movq	-24(%rbp), %rax
	subq	%fs:40, %rax
	je	.L428
	call	__stack_chk_fail@PLT
.L428:
	addq	$64, %rsp
	popq	%rbx
	popq	%r12
	popq	%rbp
	.cfi_def_cfa 7, 8
	ret
	.cfi_endproc
.LFE3736:
	.section	.gcc_except_table
.LLSDA3736:
	.byte	0xff
	.byte	0xff
	.byte	0x1
	.uleb128 .LLSDACSE3736-.LLSDACSB3736
.LLSDACSB3736:
	.uleb128 .LEHB160-.LFB3736
	.uleb128 .LEHE160-.LEHB160
	.uleb128 .L429-.LFB3736
	.uleb128 0
	.uleb128 .LEHB161-.LFB3736
	.uleb128 .LEHE161-.LEHB161
	.uleb128 .L430-.LFB3736
	.uleb128 0
	.uleb128 .LEHB162-.LFB3736
	.uleb128 .LEHE162-.LEHB162
	.uleb128 0
	.uleb128 0
.LLSDACSE3736:
	.section	.text._ZNSt3mapINSt7__cxx1112basic_stringIcSt11char_traitsIcESaIcEEES5_St4lessIS5_ESaISt4pairIKS5_S5_EEEC2ESt16initializer_listISA_ERKS7_RKSB_,"axG",@progbits,_ZNSt3mapINSt7__cxx1112basic_stringIcSt11char_traitsIcESaIcEEES5_St4lessIS5_ESaISt4pairIKS5_S5_EEEC5ESt16initializer_listISA_ERKS7_RKSB_,comdat
	.size	_ZNSt3mapINSt7__cxx1112basic_stringIcSt11char_traitsIcESaIcEEES5_St4lessIS5_ESaISt4pairIKS5_S5_EEEC2ESt16initializer_listISA_ERKS7_RKSB_, .-_ZNSt3mapINSt7__cxx1112basic_stringIcSt11char_traitsIcESaIcEEES5_St4lessIS5_ESaISt4pairIKS5_S5_EEEC2ESt16initializer_listISA_ERKS7_RKSB_
	.weak	_ZNSt3mapINSt7__cxx1112basic_stringIcSt11char_traitsIcESaIcEEES5_St4lessIS5_ESaISt4pairIKS5_S5_EEEC1ESt16initializer_listISA_ERKS7_RKSB_
	.set	_ZNSt3mapINSt7__cxx1112basic_stringIcSt11char_traitsIcESaIcEEES5_St4lessIS5_ESaISt4pairIKS5_S5_EEEC1ESt16initializer_listISA_ERKS7_RKSB_,_ZNSt3mapINSt7__cxx1112basic_stringIcSt11char_traitsIcESaIcEEES5_St4lessIS5_ESaISt4pairIKS5_S5_EEEC2ESt16initializer_listISA_ERKS7_RKSB_
	.section	.text._ZSt4moveIRNSt7__cxx1112basic_stringIcSt11char_traitsIcESaIcEEEEONSt16remove_referenceIT_E4typeEOS8_,"axG",@progbits,_ZSt4moveIRNSt7__cxx1112basic_stringIcSt11char_traitsIcESaIcEEEEONSt16remove_referenceIT_E4typeEOS8_,comdat
	.weak	_ZSt4moveIRNSt7__cxx1112basic_stringIcSt11char_traitsIcESaIcEEEEONSt16remove_referenceIT_E4typeEOS8_
	.type	_ZSt4moveIRNSt7__cxx1112basic_stringIcSt11char_traitsIcESaIcEEEEONSt16remove_referenceIT_E4typeEOS8_, @function
_ZSt4moveIRNSt7__cxx1112basic_stringIcSt11char_traitsIcESaIcEEEEONSt16remove_referenceIT_E4typeEOS8_:
.LFB3844:
	.cfi_startproc
	endbr64
	pushq	%rbp
	.cfi_def_cfa_offset 16
	.cfi_offset 6, -16
	movq	%rsp, %rbp
	.cfi_def_cfa_register 6
	movq	%rdi, -8(%rbp)
	movq	-8(%rbp), %rax
	popq	%rbp
	.cfi_def_cfa 7, 8
	ret
	.cfi_endproc
.LFE3844:
	.size	_ZSt4moveIRNSt7__cxx1112basic_stringIcSt11char_traitsIcESaIcEEEEONSt16remove_referenceIT_E4typeEOS8_, .-_ZSt4moveIRNSt7__cxx1112basic_stringIcSt11char_traitsIcESaIcEEEEONSt16remove_referenceIT_E4typeEOS8_
	.section	.text._ZNKSt8_Rb_treeINSt7__cxx1112basic_stringIcSt11char_traitsIcESaIcEEESt4pairIKS5_S5_ESt10_Select1stIS8_ESt4lessIS5_ESaIS8_EE5beginEv,"axG",@progbits,_ZNKSt8_Rb_treeINSt7__cxx1112basic_stringIcSt11char_traitsIcESaIcEEESt4pairIKS5_S5_ESt10_Select1stIS8_ESt4lessIS5_ESaIS8_EE5beginEv,comdat
	.align 2
	.weak	_ZNKSt8_Rb_treeINSt7__cxx1112basic_stringIcSt11char_traitsIcESaIcEEESt4pairIKS5_S5_ESt10_Select1stIS8_ESt4lessIS5_ESaIS8_EE5beginEv
	.type	_ZNKSt8_Rb_treeINSt7__cxx1112basic_stringIcSt11char_traitsIcESaIcEEESt4pairIKS5_S5_ESt10_Select1stIS8_ESt4lessIS5_ESaIS8_EE5beginEv, @function
_ZNKSt8_Rb_treeINSt7__cxx1112basic_stringIcSt11char_traitsIcESaIcEEESt4pairIKS5_S5_ESt10_Select1stIS8_ESt4lessIS5_ESaIS8_EE5beginEv:
.LFB3851:
	.cfi_startproc
	endbr64
	pushq	%rbp
	.cfi_def_cfa_offset 16
	.cfi_offset 6, -16
	movq	%rsp, %rbp
	.cfi_def_cfa_register 6
	subq	$32, %rsp
	movq	%rdi, -24(%rbp)
	movq	%fs:40, %rax
	movq	%rax, -8(%rbp)
	xorl	%eax, %eax
	movq	-24(%rbp), %rax
	movq	24(%rax), %rdx
	leaq	-16(%rbp), %rax
	movq	%rdx, %rsi
	movq	%rax, %rdi
	call	_ZNSt23_Rb_tree_const_iteratorISt4pairIKNSt7__cxx1112basic_stringIcSt11char_traitsIcESaIcEEES6_EEC1EPKSt18_Rb_tree_node_base
	movq	-16(%rbp), %rax
	movq	-8(%rbp), %rdx
	subq	%fs:40, %rdx
	je	.L436
	call	__stack_chk_fail@PLT
.L436:
	leave
	.cfi_def_cfa 7, 8
	ret
	.cfi_endproc
.LFE3851:
	.size	_ZNKSt8_Rb_treeINSt7__cxx1112basic_stringIcSt11char_traitsIcESaIcEEESt4pairIKS5_S5_ESt10_Select1stIS8_ESt4lessIS5_ESaIS8_EE5beginEv, .-_ZNKSt8_Rb_treeINSt7__cxx1112basic_stringIcSt11char_traitsIcESaIcEEESt4pairIKS5_S5_ESt10_Select1stIS8_ESt4lessIS5_ESaIS8_EE5beginEv
	.section	.text._ZNKSt8_Rb_treeINSt7__cxx1112basic_stringIcSt11char_traitsIcESaIcEEESt4pairIKS5_S5_ESt10_Select1stIS8_ESt4lessIS5_ESaIS8_EE3endEv,"axG",@progbits,_ZNKSt8_Rb_treeINSt7__cxx1112basic_stringIcSt11char_traitsIcESaIcEEESt4pairIKS5_S5_ESt10_Select1stIS8_ESt4lessIS5_ESaIS8_EE3endEv,comdat
	.align 2
	.weak	_ZNKSt8_Rb_treeINSt7__cxx1112basic_stringIcSt11char_traitsIcESaIcEEESt4pairIKS5_S5_ESt10_Select1stIS8_ESt4lessIS5_ESaIS8_EE3endEv
	.type	_ZNKSt8_Rb_treeINSt7__cxx1112basic_stringIcSt11char_traitsIcESaIcEEESt4pairIKS5_S5_ESt10_Select1stIS8_ESt4lessIS5_ESaIS8_EE3endEv, @function
_ZNKSt8_Rb_treeINSt7__cxx1112basic_stringIcSt11char_traitsIcESaIcEEESt4pairIKS5_S5_ESt10_Select1stIS8_ESt4lessIS5_ESaIS8_EE3endEv:
.LFB3852:
	.cfi_startproc
	endbr64
	pushq	%rbp
	.cfi_def_cfa_offset 16
	.cfi_offset 6, -16
	movq	%rsp, %rbp
	.cfi_def_cfa_register 6
	subq	$32, %rsp
	movq	%rdi, -24(%rbp)
	movq	%fs:40, %rax
	movq	%rax, -8(%rbp)
	xorl	%eax, %eax
	movq	-24(%rbp), %rax
	leaq	8(%rax), %rdx
	leaq	-16(%rbp), %rax
	movq	%rdx, %rsi
	movq	%rax, %rdi
	call	_ZNSt23_Rb_tree_const_iteratorISt4pairIKNSt7__cxx1112basic_stringIcSt11char_traitsIcESaIcEEES6_EEC1EPKSt18_Rb_tree_node_base
	movq	-16(%rbp), %rax
	movq	-8(%rbp), %rdx
	subq	%fs:40, %rdx
	je	.L439
	call	__stack_chk_fail@PLT
.L439:
	leave
	.cfi_def_cfa 7, 8
	ret
	.cfi_endproc
.LFE3852:
	.size	_ZNKSt8_Rb_treeINSt7__cxx1112basic_stringIcSt11char_traitsIcESaIcEEESt4pairIKS5_S5_ESt10_Select1stIS8_ESt4lessIS5_ESaIS8_EE3endEv, .-_ZNKSt8_Rb_treeINSt7__cxx1112basic_stringIcSt11char_traitsIcESaIcEEESt4pairIKS5_S5_ESt10_Select1stIS8_ESt4lessIS5_ESaIS8_EE3endEv
	.section	.text._ZNKSt13_Rb_tree_nodeISt4pairIKNSt7__cxx1112basic_stringIcSt11char_traitsIcESaIcEEES6_EE9_M_valptrEv,"axG",@progbits,_ZNKSt13_Rb_tree_nodeISt4pairIKNSt7__cxx1112basic_stringIcSt11char_traitsIcESaIcEEES6_EE9_M_valptrEv,comdat
	.align 2
	.weak	_ZNKSt13_Rb_tree_nodeISt4pairIKNSt7__cxx1112basic_stringIcSt11char_traitsIcESaIcEEES6_EE9_M_valptrEv
	.type	_ZNKSt13_Rb_tree_nodeISt4pairIKNSt7__cxx1112basic_stringIcSt11char_traitsIcESaIcEEES6_EE9_M_valptrEv, @function
_ZNKSt13_Rb_tree_nodeISt4pairIKNSt7__cxx1112basic_stringIcSt11char_traitsIcESaIcEEES6_EE9_M_valptrEv:
.LFB3853:
	.cfi_startproc
	endbr64
	pushq	%rbp
	.cfi_def_cfa_offset 16
	.cfi_offset 6, -16
	movq	%rsp, %rbp
	.cfi_def_cfa_register 6
	subq	$16, %rsp
	movq	%rdi, -8(%rbp)
	movq	-8(%rbp), %rax
	addq	$32, %rax
	movq	%rax, %rdi
	call	_ZNK9__gnu_cxx16__aligned_membufISt4pairIKNSt7__cxx1112basic_stringIcSt11char_traitsIcESaIcEEES7_EE6_M_ptrEv
	leave
	.cfi_def_cfa 7, 8
	ret
	.cfi_endproc
.LFE3853:
	.size	_ZNKSt13_Rb_tree_nodeISt4pairIKNSt7__cxx1112basic_stringIcSt11char_traitsIcESaIcEEES6_EE9_M_valptrEv, .-_ZNKSt13_Rb_tree_nodeISt4pairIKNSt7__cxx1112basic_stringIcSt11char_traitsIcESaIcEEES6_EE9_M_valptrEv
	.section	.text._ZN9__gnu_cxx13new_allocatorISt13_Rb_tree_nodeISt4pairIKNSt7__cxx1112basic_stringIcSt11char_traitsIcESaIcEEES8_EEED2Ev,"axG",@progbits,_ZN9__gnu_cxx13new_allocatorISt13_Rb_tree_nodeISt4pairIKNSt7__cxx1112basic_stringIcSt11char_traitsIcESaIcEEES8_EEED5Ev,comdat
	.align 2
	.weak	_ZN9__gnu_cxx13new_allocatorISt13_Rb_tree_nodeISt4pairIKNSt7__cxx1112basic_stringIcSt11char_traitsIcESaIcEEES8_EEED2Ev
	.type	_ZN9__gnu_cxx13new_allocatorISt13_Rb_tree_nodeISt4pairIKNSt7__cxx1112basic_stringIcSt11char_traitsIcESaIcEEES8_EEED2Ev, @function
_ZN9__gnu_cxx13new_allocatorISt13_Rb_tree_nodeISt4pairIKNSt7__cxx1112basic_stringIcSt11char_traitsIcESaIcEEES8_EEED2Ev:
.LFB3867:
	.cfi_startproc
	endbr64
	pushq	%rbp
	.cfi_def_cfa_offset 16
	.cfi_offset 6, -16
	movq	%rsp, %rbp
	.cfi_def_cfa_register 6
	movq	%rdi, -8(%rbp)
	nop
	popq	%rbp
	.cfi_def_cfa 7, 8
	ret
	.cfi_endproc
.LFE3867:
	.size	_ZN9__gnu_cxx13new_allocatorISt13_Rb_tree_nodeISt4pairIKNSt7__cxx1112basic_stringIcSt11char_traitsIcESaIcEEES8_EEED2Ev, .-_ZN9__gnu_cxx13new_allocatorISt13_Rb_tree_nodeISt4pairIKNSt7__cxx1112basic_stringIcSt11char_traitsIcESaIcEEES8_EEED2Ev
	.weak	_ZN9__gnu_cxx13new_allocatorISt13_Rb_tree_nodeISt4pairIKNSt7__cxx1112basic_stringIcSt11char_traitsIcESaIcEEES8_EEED1Ev
	.set	_ZN9__gnu_cxx13new_allocatorISt13_Rb_tree_nodeISt4pairIKNSt7__cxx1112basic_stringIcSt11char_traitsIcESaIcEEES8_EEED1Ev,_ZN9__gnu_cxx13new_allocatorISt13_Rb_tree_nodeISt4pairIKNSt7__cxx1112basic_stringIcSt11char_traitsIcESaIcEEES8_EEED2Ev
	.section	.text._ZNSt8_Rb_treeINSt7__cxx1112basic_stringIcSt11char_traitsIcESaIcEEESt4pairIKS5_S5_ESt10_Select1stIS8_ESt4lessIS5_ESaIS8_EE8_M_eraseEPSt13_Rb_tree_nodeIS8_E,"axG",@progbits,_ZNSt8_Rb_treeINSt7__cxx1112basic_stringIcSt11char_traitsIcESaIcEEESt4pairIKS5_S5_ESt10_Select1stIS8_ESt4lessIS5_ESaIS8_EE8_M_eraseEPSt13_Rb_tree_nodeIS8_E,comdat
	.align 2
	.weak	_ZNSt8_Rb_treeINSt7__cxx1112basic_stringIcSt11char_traitsIcESaIcEEESt4pairIKS5_S5_ESt10_Select1stIS8_ESt4lessIS5_ESaIS8_EE8_M_eraseEPSt13_Rb_tree_nodeIS8_E
	.type	_ZNSt8_Rb_treeINSt7__cxx1112basic_stringIcSt11char_traitsIcESaIcEEESt4pairIKS5_S5_ESt10_Select1stIS8_ESt4lessIS5_ESaIS8_EE8_M_eraseEPSt13_Rb_tree_nodeIS8_E, @function
_ZNSt8_Rb_treeINSt7__cxx1112basic_stringIcSt11char_traitsIcESaIcEEESt4pairIKS5_S5_ESt10_Select1stIS8_ESt4lessIS5_ESaIS8_EE8_M_eraseEPSt13_Rb_tree_nodeIS8_E:
.LFB3869:
	.cfi_startproc
	endbr64
	pushq	%rbp
	.cfi_def_cfa_offset 16
	.cfi_offset 6, -16
	movq	%rsp, %rbp
	.cfi_def_cfa_register 6
	subq	$32, %rsp
	movq	%rdi, -24(%rbp)
	movq	%rsi, -32(%rbp)
	jmp	.L444
.L445:
	movq	-32(%rbp), %rax
	movq	%rax, %rdi
	call	_ZNSt8_Rb_treeINSt7__cxx1112basic_stringIcSt11char_traitsIcESaIcEEESt4pairIKS5_S5_ESt10_Select1stIS8_ESt4lessIS5_ESaIS8_EE8_S_rightEPSt18_Rb_tree_node_base
	movq	%rax, %rdx
	movq	-24(%rbp), %rax
	movq	%rdx, %rsi
	movq	%rax, %rdi
	call	_ZNSt8_Rb_treeINSt7__cxx1112basic_stringIcSt11char_traitsIcESaIcEEESt4pairIKS5_S5_ESt10_Select1stIS8_ESt4lessIS5_ESaIS8_EE8_M_eraseEPSt13_Rb_tree_nodeIS8_E
	movq	-32(%rbp), %rax
	movq	%rax, %rdi
	call	_ZNSt8_Rb_treeINSt7__cxx1112basic_stringIcSt11char_traitsIcESaIcEEESt4pairIKS5_S5_ESt10_Select1stIS8_ESt4lessIS5_ESaIS8_EE7_S_leftEPSt18_Rb_tree_node_base
	movq	%rax, -8(%rbp)
	movq	-32(%rbp), %rdx
	movq	-24(%rbp), %rax
	movq	%rdx, %rsi
	movq	%rax, %rdi
	call	_ZNSt8_Rb_treeINSt7__cxx1112basic_stringIcSt11char_traitsIcESaIcEEESt4pairIKS5_S5_ESt10_Select1stIS8_ESt4lessIS5_ESaIS8_EE12_M_drop_nodeEPSt13_Rb_tree_nodeIS8_E
	movq	-8(%rbp), %rax
	movq	%rax, -32(%rbp)
.L444:
	cmpq	$0, -32(%rbp)
	jne	.L445
	nop
	nop
	leave
	.cfi_def_cfa 7, 8
	ret
	.cfi_endproc
.LFE3869:
	.size	_ZNSt8_Rb_treeINSt7__cxx1112basic_stringIcSt11char_traitsIcESaIcEEESt4pairIKS5_S5_ESt10_Select1stIS8_ESt4lessIS5_ESaIS8_EE8_M_eraseEPSt13_Rb_tree_nodeIS8_E, .-_ZNSt8_Rb_treeINSt7__cxx1112basic_stringIcSt11char_traitsIcESaIcEEESt4pairIKS5_S5_ESt10_Select1stIS8_ESt4lessIS5_ESaIS8_EE8_M_eraseEPSt13_Rb_tree_nodeIS8_E
	.section	.text._ZNSt8_Rb_treeINSt7__cxx1112basic_stringIcSt11char_traitsIcESaIcEEESt4pairIKS5_S5_ESt10_Select1stIS8_ESt4lessIS5_ESaIS8_EE8_M_beginEv,"axG",@progbits,_ZNSt8_Rb_treeINSt7__cxx1112basic_stringIcSt11char_traitsIcESaIcEEESt4pairIKS5_S5_ESt10_Select1stIS8_ESt4lessIS5_ESaIS8_EE8_M_beginEv,comdat
	.align 2
	.weak	_ZNSt8_Rb_treeINSt7__cxx1112basic_stringIcSt11char_traitsIcESaIcEEESt4pairIKS5_S5_ESt10_Select1stIS8_ESt4lessIS5_ESaIS8_EE8_M_beginEv
	.type	_ZNSt8_Rb_treeINSt7__cxx1112basic_stringIcSt11char_traitsIcESaIcEEESt4pairIKS5_S5_ESt10_Select1stIS8_ESt4lessIS5_ESaIS8_EE8_M_beginEv, @function
_ZNSt8_Rb_treeINSt7__cxx1112basic_stringIcSt11char_traitsIcESaIcEEESt4pairIKS5_S5_ESt10_Select1stIS8_ESt4lessIS5_ESaIS8_EE8_M_beginEv:
.LFB3870:
	.cfi_startproc
	endbr64
	pushq	%rbp
	.cfi_def_cfa_offset 16
	.cfi_offset 6, -16
	movq	%rsp, %rbp
	.cfi_def_cfa_register 6
	subq	$16, %rsp
	movq	%rdi, -8(%rbp)
	movq	-8(%rbp), %rax
	movq	%rax, %rdi
	call	_ZNKSt8_Rb_treeINSt7__cxx1112basic_stringIcSt11char_traitsIcESaIcEEESt4pairIKS5_S5_ESt10_Select1stIS8_ESt4lessIS5_ESaIS8_EE9_M_mbeginEv
	leave
	.cfi_def_cfa 7, 8
	ret
	.cfi_endproc
.LFE3870:
	.size	_ZNSt8_Rb_treeINSt7__cxx1112basic_stringIcSt11char_traitsIcESaIcEEESt4pairIKS5_S5_ESt10_Select1stIS8_ESt4lessIS5_ESaIS8_EE8_M_beginEv, .-_ZNSt8_Rb_treeINSt7__cxx1112basic_stringIcSt11char_traitsIcESaIcEEESt4pairIKS5_S5_ESt10_Select1stIS8_ESt4lessIS5_ESaIS8_EE8_M_beginEv
	.section	.text._ZNKSt6vectorIdSaIdEE4sizeEv,"axG",@progbits,_ZNKSt6vectorIdSaIdEE4sizeEv,comdat
	.align 2
	.weak	_ZNKSt6vectorIdSaIdEE4sizeEv
	.type	_ZNKSt6vectorIdSaIdEE4sizeEv, @function
_ZNKSt6vectorIdSaIdEE4sizeEv:
.LFB3901:
	.cfi_startproc
	endbr64
	pushq	%rbp
	.cfi_def_cfa_offset 16
	.cfi_offset 6, -16
	movq	%rsp, %rbp
	.cfi_def_cfa_register 6
	movq	%rdi, -8(%rbp)
	movq	-8(%rbp), %rax
	movq	8(%rax), %rdx
	movq	-8(%rbp), %rax
	movq	(%rax), %rcx
	movq	%rdx, %rax
	subq	%rcx, %rax
	sarq	$3, %rax
	popq	%rbp
	.cfi_def_cfa 7, 8
	ret
	.cfi_endproc
.LFE3901:
	.size	_ZNKSt6vectorIdSaIdEE4sizeEv, .-_ZNKSt6vectorIdSaIdEE4sizeEv
	.section	.text._ZN13matplotlibcpp6detail9get_arrayIdEEP7_objectRKSt6vectorIT_SaIS5_EE,"axG",@progbits,_ZN13matplotlibcpp6detail9get_arrayIdEEP7_objectRKSt6vectorIT_SaIS5_EE,comdat
	.weak	_ZN13matplotlibcpp6detail9get_arrayIdEEP7_objectRKSt6vectorIT_SaIS5_EE
	.type	_ZN13matplotlibcpp6detail9get_arrayIdEEP7_objectRKSt6vectorIT_SaIS5_EE, @function
_ZN13matplotlibcpp6detail9get_arrayIdEEP7_objectRKSt6vectorIT_SaIS5_EE:
.LFB3902:
	.cfi_startproc
	endbr64
	pushq	%rbp
	.cfi_def_cfa_offset 16
	.cfi_offset 6, -16
	movq	%rsp, %rbp
	.cfi_def_cfa_register 6
	pushq	%rbx
	subq	$88, %rsp
	.cfi_offset 3, -24
	movq	%rdi, -88(%rbp)
	movq	%fs:40, %rax
	movq	%rax, -24(%rbp)
	xorl	%eax, %eax
	movq	-88(%rbp), %rax
	movq	%rax, %rdi
	call	_ZNKSt6vectorIdSaIdEE4sizeEv
	movq	%rax, -72(%rbp)
	movl	$12, -76(%rbp)
	cmpl	$25, -76(%rbp)
	jne	.L451
	movq	-88(%rbp), %rax
	movq	%rax, %rdi
	call	_ZNKSt6vectorIdSaIdEE4sizeEv
	salq	$3, %rax
	movq	%rax, -48(%rbp)
	movq	-48(%rbp), %rax
	movq	%rax, %rdi
	call	malloc@PLT
	movq	%rax, -40(%rbp)
	movq	$0, -64(%rbp)
	jmp	.L452
.L453:
	movq	-64(%rbp), %rdx
	movq	-88(%rbp), %rax
	movq	%rdx, %rsi
	movq	%rax, %rdi
	call	_ZNKSt6vectorIdSaIdEEixEm
	movq	-64(%rbp), %rdx
	leaq	0(,%rdx,8), %rcx
	movq	-40(%rbp), %rdx
	addq	%rcx, %rdx
	movsd	(%rax), %xmm0
	movsd	%xmm0, (%rdx)
	addq	$1, -64(%rbp)
.L452:
	movq	-88(%rbp), %rax
	movq	%rax, %rdi
	call	_ZNKSt6vectorIdSaIdEE4sizeEv
	cmpq	%rax, -64(%rbp)
	setb	%al
	testb	%al, %al
	jne	.L453
	movq	_ZL11PyArray_API(%rip), %rax
	addq	$744, %rax
	movq	(%rax), %rax
	movq	%rax, %r10
	movq	_ZL11PyArray_API(%rip), %rax
	addq	$16, %rax
	movq	(%rax), %rax
	movq	-40(%rbp), %rcx
	leaq	-72(%rbp), %rdx
	subq	$8, %rsp
	pushq	$0
	pushq	$1281
	pushq	$0
	movq	%rcx, %r9
	movl	$0, %r8d
	movl	$12, %ecx
	movl	$1, %esi
	movq	%rax, %rdi
	call	*%r10
	addq	$32, %rsp
	movq	%rax, -32(%rbp)
	movq	_ZL11PyArray_API(%rip), %rax
	addq	$736, %rax
	movq	(%rax), %rax
	movq	%rax, %rdx
	movq	-32(%rbp), %rax
	movl	$4, %esi
	movq	%rax, %rdi
	call	*%rdx
	movq	-32(%rbp), %rax
	jmp	.L455
.L451:
	call	_import_array
	movq	_ZL11PyArray_API(%rip), %rax
	addq	$744, %rax
	movq	(%rax), %rax
	movq	%rax, %rbx
	movq	-88(%rbp), %rax
	movq	%rax, %rdi
	call	_ZNKSt6vectorIdSaIdEE4dataEv
	movq	%rax, %rsi
	movl	-76(%rbp), %ecx
	movq	_ZL11PyArray_API(%rip), %rax
	addq	$16, %rax
	movq	(%rax), %rax
	leaq	-72(%rbp), %rdx
	subq	$8, %rsp
	pushq	$0
	pushq	$1281
	pushq	$0
	movq	%rsi, %r9
	movl	$0, %r8d
	movl	$1, %esi
	movq	%rax, %rdi
	call	*%rbx
	addq	$32, %rsp
	movq	%rax, -56(%rbp)
	movq	-56(%rbp), %rax
.L455:
	movq	-24(%rbp), %rdx
	subq	%fs:40, %rdx
	je	.L456
	call	__stack_chk_fail@PLT
.L456:
	movq	-8(%rbp), %rbx
	leave
	.cfi_def_cfa 7, 8
	ret
	.cfi_endproc
.LFE3902:
	.size	_ZN13matplotlibcpp6detail9get_arrayIdEEP7_objectRKSt6vectorIT_SaIS5_EE, .-_ZN13matplotlibcpp6detail9get_arrayIdEEP7_objectRKSt6vectorIT_SaIS5_EE
	.section	.text._ZNSt12_Vector_baseIdSaIdEE17_Vector_impl_dataC2Ev,"axG",@progbits,_ZNSt12_Vector_baseIdSaIdEE17_Vector_impl_dataC5Ev,comdat
	.align 2
	.weak	_ZNSt12_Vector_baseIdSaIdEE17_Vector_impl_dataC2Ev
	.type	_ZNSt12_Vector_baseIdSaIdEE17_Vector_impl_dataC2Ev, @function
_ZNSt12_Vector_baseIdSaIdEE17_Vector_impl_dataC2Ev:
.LFB3908:
	.cfi_startproc
	endbr64
	pushq	%rbp
	.cfi_def_cfa_offset 16
	.cfi_offset 6, -16
	movq	%rsp, %rbp
	.cfi_def_cfa_register 6
	movq	%rdi, -8(%rbp)
	movq	-8(%rbp), %rax
	movq	$0, (%rax)
	movq	-8(%rbp), %rax
	movq	$0, 8(%rax)
	movq	-8(%rbp), %rax
	movq	$0, 16(%rax)
	nop
	popq	%rbp
	.cfi_def_cfa 7, 8
	ret
	.cfi_endproc
.LFE3908:
	.size	_ZNSt12_Vector_baseIdSaIdEE17_Vector_impl_dataC2Ev, .-_ZNSt12_Vector_baseIdSaIdEE17_Vector_impl_dataC2Ev
	.weak	_ZNSt12_Vector_baseIdSaIdEE17_Vector_impl_dataC1Ev
	.set	_ZNSt12_Vector_baseIdSaIdEE17_Vector_impl_dataC1Ev,_ZNSt12_Vector_baseIdSaIdEE17_Vector_impl_dataC2Ev
	.section	.text._ZN9__gnu_cxx13new_allocatorIdED2Ev,"axG",@progbits,_ZN9__gnu_cxx13new_allocatorIdED5Ev,comdat
	.align 2
	.weak	_ZN9__gnu_cxx13new_allocatorIdED2Ev
	.type	_ZN9__gnu_cxx13new_allocatorIdED2Ev, @function
_ZN9__gnu_cxx13new_allocatorIdED2Ev:
.LFB3911:
	.cfi_startproc
	endbr64
	pushq	%rbp
	.cfi_def_cfa_offset 16
	.cfi_offset 6, -16
	movq	%rsp, %rbp
	.cfi_def_cfa_register 6
	movq	%rdi, -8(%rbp)
	nop
	popq	%rbp
	.cfi_def_cfa 7, 8
	ret
	.cfi_endproc
.LFE3911:
	.size	_ZN9__gnu_cxx13new_allocatorIdED2Ev, .-_ZN9__gnu_cxx13new_allocatorIdED2Ev
	.weak	_ZN9__gnu_cxx13new_allocatorIdED1Ev
	.set	_ZN9__gnu_cxx13new_allocatorIdED1Ev,_ZN9__gnu_cxx13new_allocatorIdED2Ev
	.section	.text._ZNSt12_Vector_baseIdSaIdEE13_M_deallocateEPdm,"axG",@progbits,_ZNSt12_Vector_baseIdSaIdEE13_M_deallocateEPdm,comdat
	.align 2
	.weak	_ZNSt12_Vector_baseIdSaIdEE13_M_deallocateEPdm
	.type	_ZNSt12_Vector_baseIdSaIdEE13_M_deallocateEPdm, @function
_ZNSt12_Vector_baseIdSaIdEE13_M_deallocateEPdm:
.LFB3913:
	.cfi_startproc
	endbr64
	pushq	%rbp
	.cfi_def_cfa_offset 16
	.cfi_offset 6, -16
	movq	%rsp, %rbp
	.cfi_def_cfa_register 6
	subq	$32, %rsp
	movq	%rdi, -8(%rbp)
	movq	%rsi, -16(%rbp)
	movq	%rdx, -24(%rbp)
	cmpq	$0, -16(%rbp)
	je	.L461
	movq	-8(%rbp), %rax
	movq	-24(%rbp), %rdx
	movq	-16(%rbp), %rcx
	movq	%rcx, %rsi
	movq	%rax, %rdi
	call	_ZNSt16allocator_traitsISaIdEE10deallocateERS0_Pdm
.L461:
	nop
	leave
	.cfi_def_cfa 7, 8
	ret
	.cfi_endproc
.LFE3913:
	.size	_ZNSt12_Vector_baseIdSaIdEE13_M_deallocateEPdm, .-_ZNSt12_Vector_baseIdSaIdEE13_M_deallocateEPdm
	.section	.text._ZNSt12_Vector_baseIdSaIdEE19_M_get_Tp_allocatorEv,"axG",@progbits,_ZNSt12_Vector_baseIdSaIdEE19_M_get_Tp_allocatorEv,comdat
	.align 2
	.weak	_ZNSt12_Vector_baseIdSaIdEE19_M_get_Tp_allocatorEv
	.type	_ZNSt12_Vector_baseIdSaIdEE19_M_get_Tp_allocatorEv, @function
_ZNSt12_Vector_baseIdSaIdEE19_M_get_Tp_allocatorEv:
.LFB3914:
	.cfi_startproc
	endbr64
	pushq	%rbp
	.cfi_def_cfa_offset 16
	.cfi_offset 6, -16
	movq	%rsp, %rbp
	.cfi_def_cfa_register 6
	movq	%rdi, -8(%rbp)
	movq	-8(%rbp), %rax
	popq	%rbp
	.cfi_def_cfa 7, 8
	ret
	.cfi_endproc
.LFE3914:
	.size	_ZNSt12_Vector_baseIdSaIdEE19_M_get_Tp_allocatorEv, .-_ZNSt12_Vector_baseIdSaIdEE19_M_get_Tp_allocatorEv
	.section	.text._ZSt8_DestroyIPddEvT_S1_RSaIT0_E,"axG",@progbits,_ZSt8_DestroyIPddEvT_S1_RSaIT0_E,comdat
	.weak	_ZSt8_DestroyIPddEvT_S1_RSaIT0_E
	.type	_ZSt8_DestroyIPddEvT_S1_RSaIT0_E, @function
_ZSt8_DestroyIPddEvT_S1_RSaIT0_E:
.LFB3915:
	.cfi_startproc
	endbr64
	pushq	%rbp
	.cfi_def_cfa_offset 16
	.cfi_offset 6, -16
	movq	%rsp, %rbp
	.cfi_def_cfa_register 6
	subq	$32, %rsp
	movq	%rdi, -8(%rbp)
	movq	%rsi, -16(%rbp)
	movq	%rdx, -24(%rbp)
	movq	-16(%rbp), %rdx
	movq	-8(%rbp), %rax
	movq	%rdx, %rsi
	movq	%rax, %rdi
	call	_ZSt8_DestroyIPdEvT_S1_
	nop
	leave
	.cfi_def_cfa 7, 8
	ret
	.cfi_endproc
.LFE3915:
	.size	_ZSt8_DestroyIPddEvT_S1_RSaIT0_E, .-_ZSt8_DestroyIPddEvT_S1_RSaIT0_E
	.section	.text._ZN9__gnu_cxx13new_allocatorIdEC2Ev,"axG",@progbits,_ZN9__gnu_cxx13new_allocatorIdEC5Ev,comdat
	.align 2
	.weak	_ZN9__gnu_cxx13new_allocatorIdEC2Ev
	.type	_ZN9__gnu_cxx13new_allocatorIdEC2Ev, @function
_ZN9__gnu_cxx13new_allocatorIdEC2Ev:
.LFB3918:
	.cfi_startproc
	endbr64
	pushq	%rbp
	.cfi_def_cfa_offset 16
	.cfi_offset 6, -16
	movq	%rsp, %rbp
	.cfi_def_cfa_register 6
	movq	%rdi, -8(%rbp)
	nop
	popq	%rbp
	.cfi_def_cfa 7, 8
	ret
	.cfi_endproc
.LFE3918:
	.size	_ZN9__gnu_cxx13new_allocatorIdEC2Ev, .-_ZN9__gnu_cxx13new_allocatorIdEC2Ev
	.weak	_ZN9__gnu_cxx13new_allocatorIdEC1Ev
	.set	_ZN9__gnu_cxx13new_allocatorIdEC1Ev,_ZN9__gnu_cxx13new_allocatorIdEC2Ev
	.section	.text._ZNSt12_Vector_baseIdSaIdEEC2ERKS0_,"axG",@progbits,_ZNSt12_Vector_baseIdSaIdEEC5ERKS0_,comdat
	.align 2
	.weak	_ZNSt12_Vector_baseIdSaIdEEC2ERKS0_
	.type	_ZNSt12_Vector_baseIdSaIdEEC2ERKS0_, @function
_ZNSt12_Vector_baseIdSaIdEEC2ERKS0_:
.LFB3921:
	.cfi_startproc
	endbr64
	pushq	%rbp
	.cfi_def_cfa_offset 16
	.cfi_offset 6, -16
	movq	%rsp, %rbp
	.cfi_def_cfa_register 6
	subq	$16, %rsp
	movq	%rdi, -8(%rbp)
	movq	%rsi, -16(%rbp)
	movq	-8(%rbp), %rax
	movq	-16(%rbp), %rdx
	movq	%rdx, %rsi
	movq	%rax, %rdi
	call	_ZNSt12_Vector_baseIdSaIdEE12_Vector_implC1ERKS0_
	nop
	leave
	.cfi_def_cfa 7, 8
	ret
	.cfi_endproc
.LFE3921:
	.size	_ZNSt12_Vector_baseIdSaIdEEC2ERKS0_, .-_ZNSt12_Vector_baseIdSaIdEEC2ERKS0_
	.weak	_ZNSt12_Vector_baseIdSaIdEEC1ERKS0_
	.set	_ZNSt12_Vector_baseIdSaIdEEC1ERKS0_,_ZNSt12_Vector_baseIdSaIdEEC2ERKS0_
	.section	.text._ZNKSt16initializer_listIdE5beginEv,"axG",@progbits,_ZNKSt16initializer_listIdE5beginEv,comdat
	.align 2
	.weak	_ZNKSt16initializer_listIdE5beginEv
	.type	_ZNKSt16initializer_listIdE5beginEv, @function
_ZNKSt16initializer_listIdE5beginEv:
.LFB3923:
	.cfi_startproc
	endbr64
	pushq	%rbp
	.cfi_def_cfa_offset 16
	.cfi_offset 6, -16
	movq	%rsp, %rbp
	.cfi_def_cfa_register 6
	movq	%rdi, -8(%rbp)
	movq	-8(%rbp), %rax
	movq	(%rax), %rax
	popq	%rbp
	.cfi_def_cfa 7, 8
	ret
	.cfi_endproc
.LFE3923:
	.size	_ZNKSt16initializer_listIdE5beginEv, .-_ZNKSt16initializer_listIdE5beginEv
	.section	.text._ZNKSt16initializer_listIdE3endEv,"axG",@progbits,_ZNKSt16initializer_listIdE3endEv,comdat
	.align 2
	.weak	_ZNKSt16initializer_listIdE3endEv
	.type	_ZNKSt16initializer_listIdE3endEv, @function
_ZNKSt16initializer_listIdE3endEv:
.LFB3924:
	.cfi_startproc
	endbr64
	pushq	%rbp
	.cfi_def_cfa_offset 16
	.cfi_offset 6, -16
	movq	%rsp, %rbp
	.cfi_def_cfa_register 6
	pushq	%rbx
	subq	$24, %rsp
	.cfi_offset 3, -24
	movq	%rdi, -24(%rbp)
	movq	-24(%rbp), %rax
	movq	%rax, %rdi
	call	_ZNKSt16initializer_listIdE5beginEv
	movq	%rax, %rbx
	movq	-24(%rbp), %rax
	movq	%rax, %rdi
	call	_ZNKSt16initializer_listIdE4sizeEv
	salq	$3, %rax
	addq	%rbx, %rax
	movq	-8(%rbp), %rbx
	leave
	.cfi_def_cfa 7, 8
	ret
	.cfi_endproc
.LFE3924:
	.size	_ZNKSt16initializer_listIdE3endEv, .-_ZNKSt16initializer_listIdE3endEv
	.section	.text._ZNSt6vectorIdSaIdEE19_M_range_initializeIPKdEEvT_S5_St20forward_iterator_tag,"axG",@progbits,_ZNSt6vectorIdSaIdEE19_M_range_initializeIPKdEEvT_S5_St20forward_iterator_tag,comdat
	.align 2
	.weak	_ZNSt6vectorIdSaIdEE19_M_range_initializeIPKdEEvT_S5_St20forward_iterator_tag
	.type	_ZNSt6vectorIdSaIdEE19_M_range_initializeIPKdEEvT_S5_St20forward_iterator_tag, @function
_ZNSt6vectorIdSaIdEE19_M_range_initializeIPKdEEvT_S5_St20forward_iterator_tag:
.LFB3925:
	.cfi_startproc
	endbr64
	pushq	%rbp
	.cfi_def_cfa_offset 16
	.cfi_offset 6, -16
	movq	%rsp, %rbp
	.cfi_def_cfa_register 6
	pushq	%rbx
	subq	$56, %rsp
	.cfi_offset 3, -24
	movq	%rdi, -40(%rbp)
	movq	%rsi, -48(%rbp)
	movq	%rdx, -56(%rbp)
	movq	-56(%rbp), %rdx
	movq	-48(%rbp), %rax
	movq	%rdx, %rsi
	movq	%rax, %rdi
	call	_ZSt8distanceIPKdENSt15iterator_traitsIT_E15difference_typeES3_S3_
	movq	%rax, -24(%rbp)
	movq	-40(%rbp), %rbx
	movq	-40(%rbp), %rax
	movq	%rax, %rdi
	call	_ZNSt12_Vector_baseIdSaIdEE19_M_get_Tp_allocatorEv
	movq	%rax, %rdx
	movq	-24(%rbp), %rax
	movq	%rdx, %rsi
	movq	%rax, %rdi
	call	_ZNSt6vectorIdSaIdEE17_S_check_init_lenEmRKS0_
	movq	%rax, %rsi
	movq	%rbx, %rdi
	call	_ZNSt12_Vector_baseIdSaIdEE11_M_allocateEm
	movq	-40(%rbp), %rdx
	movq	%rax, (%rdx)
	movq	-40(%rbp), %rax
	movq	(%rax), %rdx
	movq	-24(%rbp), %rax
	salq	$3, %rax
	addq	%rax, %rdx
	movq	-40(%rbp), %rax
	movq	%rdx, 16(%rax)
	movq	-40(%rbp), %rax
	movq	%rax, %rdi
	call	_ZNSt12_Vector_baseIdSaIdEE19_M_get_Tp_allocatorEv
	movq	%rax, %rcx
	movq	-40(%rbp), %rax
	movq	(%rax), %rdx
	movq	-56(%rbp), %rsi
	movq	-48(%rbp), %rax
	movq	%rax, %rdi
	call	_ZSt22__uninitialized_copy_aIPKdPddET0_T_S4_S3_RSaIT1_E
	movq	-40(%rbp), %rdx
	movq	%rax, 8(%rdx)
	nop
	movq	-8(%rbp), %rbx
	leave
	.cfi_def_cfa 7, 8
	ret
	.cfi_endproc
.LFE3925:
	.size	_ZNSt6vectorIdSaIdEE19_M_range_initializeIPKdEEvT_S5_St20forward_iterator_tag, .-_ZNSt6vectorIdSaIdEE19_M_range_initializeIPKdEEvT_S5_St20forward_iterator_tag
	.section	.text._ZN9__gnu_cxx13new_allocatorISt6vectorIdSaIdEEEC2Ev,"axG",@progbits,_ZN9__gnu_cxx13new_allocatorISt6vectorIdSaIdEEEC5Ev,comdat
	.align 2
	.weak	_ZN9__gnu_cxx13new_allocatorISt6vectorIdSaIdEEEC2Ev
	.type	_ZN9__gnu_cxx13new_allocatorISt6vectorIdSaIdEEEC2Ev, @function
_ZN9__gnu_cxx13new_allocatorISt6vectorIdSaIdEEEC2Ev:
.LFB3927:
	.cfi_startproc
	endbr64
	pushq	%rbp
	.cfi_def_cfa_offset 16
	.cfi_offset 6, -16
	movq	%rsp, %rbp
	.cfi_def_cfa_register 6
	movq	%rdi, -8(%rbp)
	nop
	popq	%rbp
	.cfi_def_cfa 7, 8
	ret
	.cfi_endproc
.LFE3927:
	.size	_ZN9__gnu_cxx13new_allocatorISt6vectorIdSaIdEEEC2Ev, .-_ZN9__gnu_cxx13new_allocatorISt6vectorIdSaIdEEEC2Ev
	.weak	_ZN9__gnu_cxx13new_allocatorISt6vectorIdSaIdEEEC1Ev
	.set	_ZN9__gnu_cxx13new_allocatorISt6vectorIdSaIdEEEC1Ev,_ZN9__gnu_cxx13new_allocatorISt6vectorIdSaIdEEEC2Ev
	.section	.text._ZN9__gnu_cxx13new_allocatorISt6vectorIdSaIdEEED2Ev,"axG",@progbits,_ZN9__gnu_cxx13new_allocatorISt6vectorIdSaIdEEED5Ev,comdat
	.align 2
	.weak	_ZN9__gnu_cxx13new_allocatorISt6vectorIdSaIdEEED2Ev
	.type	_ZN9__gnu_cxx13new_allocatorISt6vectorIdSaIdEEED2Ev, @function
_ZN9__gnu_cxx13new_allocatorISt6vectorIdSaIdEEED2Ev:
.LFB3930:
	.cfi_startproc
	endbr64
	pushq	%rbp
	.cfi_def_cfa_offset 16
	.cfi_offset 6, -16
	movq	%rsp, %rbp
	.cfi_def_cfa_register 6
	movq	%rdi, -8(%rbp)
	nop
	popq	%rbp
	.cfi_def_cfa 7, 8
	ret
	.cfi_endproc
.LFE3930:
	.size	_ZN9__gnu_cxx13new_allocatorISt6vectorIdSaIdEEED2Ev, .-_ZN9__gnu_cxx13new_allocatorISt6vectorIdSaIdEEED2Ev
	.weak	_ZN9__gnu_cxx13new_allocatorISt6vectorIdSaIdEEED1Ev
	.set	_ZN9__gnu_cxx13new_allocatorISt6vectorIdSaIdEEED1Ev,_ZN9__gnu_cxx13new_allocatorISt6vectorIdSaIdEEED2Ev
	.section	.text._ZNSt12_Vector_baseISt6vectorIdSaIdEESaIS2_EEC2ERKS3_,"axG",@progbits,_ZNSt12_Vector_baseISt6vectorIdSaIdEESaIS2_EEC5ERKS3_,comdat
	.align 2
	.weak	_ZNSt12_Vector_baseISt6vectorIdSaIdEESaIS2_EEC2ERKS3_
	.type	_ZNSt12_Vector_baseISt6vectorIdSaIdEESaIS2_EEC2ERKS3_, @function
_ZNSt12_Vector_baseISt6vectorIdSaIdEESaIS2_EEC2ERKS3_:
.LFB3933:
	.cfi_startproc
	endbr64
	pushq	%rbp
	.cfi_def_cfa_offset 16
	.cfi_offset 6, -16
	movq	%rsp, %rbp
	.cfi_def_cfa_register 6
	subq	$16, %rsp
	movq	%rdi, -8(%rbp)
	movq	%rsi, -16(%rbp)
	movq	-8(%rbp), %rax
	movq	-16(%rbp), %rdx
	movq	%rdx, %rsi
	movq	%rax, %rdi
	call	_ZNSt12_Vector_baseISt6vectorIdSaIdEESaIS2_EE12_Vector_implC1ERKS3_
	nop
	leave
	.cfi_def_cfa 7, 8
	ret
	.cfi_endproc
.LFE3933:
	.size	_ZNSt12_Vector_baseISt6vectorIdSaIdEESaIS2_EEC2ERKS3_, .-_ZNSt12_Vector_baseISt6vectorIdSaIdEESaIS2_EEC2ERKS3_
	.weak	_ZNSt12_Vector_baseISt6vectorIdSaIdEESaIS2_EEC1ERKS3_
	.set	_ZNSt12_Vector_baseISt6vectorIdSaIdEESaIS2_EEC1ERKS3_,_ZNSt12_Vector_baseISt6vectorIdSaIdEESaIS2_EEC2ERKS3_
	.section	.text._ZNKSt16initializer_listISt6vectorIdSaIdEEE5beginEv,"axG",@progbits,_ZNKSt16initializer_listISt6vectorIdSaIdEEE5beginEv,comdat
	.align 2
	.weak	_ZNKSt16initializer_listISt6vectorIdSaIdEEE5beginEv
	.type	_ZNKSt16initializer_listISt6vectorIdSaIdEEE5beginEv, @function
_ZNKSt16initializer_listISt6vectorIdSaIdEEE5beginEv:
.LFB3935:
	.cfi_startproc
	endbr64
	pushq	%rbp
	.cfi_def_cfa_offset 16
	.cfi_offset 6, -16
	movq	%rsp, %rbp
	.cfi_def_cfa_register 6
	movq	%rdi, -8(%rbp)
	movq	-8(%rbp), %rax
	movq	(%rax), %rax
	popq	%rbp
	.cfi_def_cfa 7, 8
	ret
	.cfi_endproc
.LFE3935:
	.size	_ZNKSt16initializer_listISt6vectorIdSaIdEEE5beginEv, .-_ZNKSt16initializer_listISt6vectorIdSaIdEEE5beginEv
	.section	.text._ZNKSt16initializer_listISt6vectorIdSaIdEEE3endEv,"axG",@progbits,_ZNKSt16initializer_listISt6vectorIdSaIdEEE3endEv,comdat
	.align 2
	.weak	_ZNKSt16initializer_listISt6vectorIdSaIdEEE3endEv
	.type	_ZNKSt16initializer_listISt6vectorIdSaIdEEE3endEv, @function
_ZNKSt16initializer_listISt6vectorIdSaIdEEE3endEv:
.LFB3936:
	.cfi_startproc
	endbr64
	pushq	%rbp
	.cfi_def_cfa_offset 16
	.cfi_offset 6, -16
	movq	%rsp, %rbp
	.cfi_def_cfa_register 6
	pushq	%rbx
	subq	$24, %rsp
	.cfi_offset 3, -24
	movq	%rdi, -24(%rbp)
	movq	-24(%rbp), %rax
	movq	%rax, %rdi
	call	_ZNKSt16initializer_listISt6vectorIdSaIdEEE5beginEv
	movq	%rax, %rbx
	movq	-24(%rbp), %rax
	movq	%rax, %rdi
	call	_ZNKSt16initializer_listISt6vectorIdSaIdEEE4sizeEv
	movq	%rax, %rdx
	movq	%rdx, %rax
	addq	%rax, %rax
	addq	%rdx, %rax
	salq	$3, %rax
	addq	%rbx, %rax
	movq	-8(%rbp), %rbx
	leave
	.cfi_def_cfa 7, 8
	ret
	.cfi_endproc
.LFE3936:
	.size	_ZNKSt16initializer_listISt6vectorIdSaIdEEE3endEv, .-_ZNKSt16initializer_listISt6vectorIdSaIdEEE3endEv
	.section	.text._ZNSt6vectorIS_IdSaIdEESaIS1_EE19_M_range_initializeIPKS1_EEvT_S7_St20forward_iterator_tag,"axG",@progbits,_ZNSt6vectorIS_IdSaIdEESaIS1_EE19_M_range_initializeIPKS1_EEvT_S7_St20forward_iterator_tag,comdat
	.align 2
	.weak	_ZNSt6vectorIS_IdSaIdEESaIS1_EE19_M_range_initializeIPKS1_EEvT_S7_St20forward_iterator_tag
	.type	_ZNSt6vectorIS_IdSaIdEESaIS1_EE19_M_range_initializeIPKS1_EEvT_S7_St20forward_iterator_tag, @function
_ZNSt6vectorIS_IdSaIdEESaIS1_EE19_M_range_initializeIPKS1_EEvT_S7_St20forward_iterator_tag:
.LFB3937:
	.cfi_startproc
	endbr64
	pushq	%rbp
	.cfi_def_cfa_offset 16
	.cfi_offset 6, -16
	movq	%rsp, %rbp
	.cfi_def_cfa_register 6
	pushq	%rbx
	subq	$56, %rsp
	.cfi_offset 3, -24
	movq	%rdi, -40(%rbp)
	movq	%rsi, -48(%rbp)
	movq	%rdx, -56(%rbp)
	movq	-56(%rbp), %rdx
	movq	-48(%rbp), %rax
	movq	%rdx, %rsi
	movq	%rax, %rdi
	call	_ZSt8distanceIPKSt6vectorIdSaIdEEENSt15iterator_traitsIT_E15difference_typeES6_S6_
	movq	%rax, -24(%rbp)
	movq	-40(%rbp), %rbx
	movq	-40(%rbp), %rax
	movq	%rax, %rdi
	call	_ZNSt12_Vector_baseISt6vectorIdSaIdEESaIS2_EE19_M_get_Tp_allocatorEv
	movq	%rax, %rdx
	movq	-24(%rbp), %rax
	movq	%rdx, %rsi
	movq	%rax, %rdi
	call	_ZNSt6vectorIS_IdSaIdEESaIS1_EE17_S_check_init_lenEmRKS2_
	movq	%rax, %rsi
	movq	%rbx, %rdi
	call	_ZNSt12_Vector_baseISt6vectorIdSaIdEESaIS2_EE11_M_allocateEm
	movq	-40(%rbp), %rdx
	movq	%rax, (%rdx)
	movq	-40(%rbp), %rax
	movq	(%rax), %rcx
	movq	-24(%rbp), %rdx
	movq	%rdx, %rax
	addq	%rax, %rax
	addq	%rdx, %rax
	salq	$3, %rax
	leaq	(%rcx,%rax), %rdx
	movq	-40(%rbp), %rax
	movq	%rdx, 16(%rax)
	movq	-40(%rbp), %rax
	movq	%rax, %rdi
	call	_ZNSt12_Vector_baseISt6vectorIdSaIdEESaIS2_EE19_M_get_Tp_allocatorEv
	movq	%rax, %rcx
	movq	-40(%rbp), %rax
	movq	(%rax), %rdx
	movq	-56(%rbp), %rsi
	movq	-48(%rbp), %rax
	movq	%rax, %rdi
	call	_ZSt22__uninitialized_copy_aIPKSt6vectorIdSaIdEEPS2_S2_ET0_T_S7_S6_RSaIT1_E
	movq	-40(%rbp), %rdx
	movq	%rax, 8(%rdx)
	nop
	movq	-8(%rbp), %rbx
	leave
	.cfi_def_cfa 7, 8
	ret
	.cfi_endproc
.LFE3937:
	.size	_ZNSt6vectorIS_IdSaIdEESaIS1_EE19_M_range_initializeIPKS1_EEvT_S7_St20forward_iterator_tag, .-_ZNSt6vectorIS_IdSaIdEESaIS1_EE19_M_range_initializeIPKS1_EEvT_S7_St20forward_iterator_tag
	.section	.text._ZNSt12_Vector_baseISt6vectorIdSaIdEESaIS2_EE19_M_get_Tp_allocatorEv,"axG",@progbits,_ZNSt12_Vector_baseISt6vectorIdSaIdEESaIS2_EE19_M_get_Tp_allocatorEv,comdat
	.align 2
	.weak	_ZNSt12_Vector_baseISt6vectorIdSaIdEESaIS2_EE19_M_get_Tp_allocatorEv
	.type	_ZNSt12_Vector_baseISt6vectorIdSaIdEESaIS2_EE19_M_get_Tp_allocatorEv, @function
_ZNSt12_Vector_baseISt6vectorIdSaIdEESaIS2_EE19_M_get_Tp_allocatorEv:
.LFB3938:
	.cfi_startproc
	endbr64
	pushq	%rbp
	.cfi_def_cfa_offset 16
	.cfi_offset 6, -16
	movq	%rsp, %rbp
	.cfi_def_cfa_register 6
	movq	%rdi, -8(%rbp)
	movq	-8(%rbp), %rax
	popq	%rbp
	.cfi_def_cfa 7, 8
	ret
	.cfi_endproc
.LFE3938:
	.size	_ZNSt12_Vector_baseISt6vectorIdSaIdEESaIS2_EE19_M_get_Tp_allocatorEv, .-_ZNSt12_Vector_baseISt6vectorIdSaIdEESaIS2_EE19_M_get_Tp_allocatorEv
	.section	.text._ZSt8_DestroyIPSt6vectorIdSaIdEES2_EvT_S4_RSaIT0_E,"axG",@progbits,_ZSt8_DestroyIPSt6vectorIdSaIdEES2_EvT_S4_RSaIT0_E,comdat
	.weak	_ZSt8_DestroyIPSt6vectorIdSaIdEES2_EvT_S4_RSaIT0_E
	.type	_ZSt8_DestroyIPSt6vectorIdSaIdEES2_EvT_S4_RSaIT0_E, @function
_ZSt8_DestroyIPSt6vectorIdSaIdEES2_EvT_S4_RSaIT0_E:
.LFB3939:
	.cfi_startproc
	endbr64
	pushq	%rbp
	.cfi_def_cfa_offset 16
	.cfi_offset 6, -16
	movq	%rsp, %rbp
	.cfi_def_cfa_register 6
	subq	$32, %rsp
	movq	%rdi, -8(%rbp)
	movq	%rsi, -16(%rbp)
	movq	%rdx, -24(%rbp)
	movq	-16(%rbp), %rdx
	movq	-8(%rbp), %rax
	movq	%rdx, %rsi
	movq	%rax, %rdi
	call	_ZSt8_DestroyIPSt6vectorIdSaIdEEEvT_S4_
	nop
	leave
	.cfi_def_cfa 7, 8
	ret
	.cfi_endproc
.LFE3939:
	.size	_ZSt8_DestroyIPSt6vectorIdSaIdEES2_EvT_S4_RSaIT0_E, .-_ZSt8_DestroyIPSt6vectorIdSaIdEES2_EvT_S4_RSaIT0_E
	.section	.text._ZNSt12_Vector_baseISt6vectorIdSaIdEESaIS2_EE17_Vector_impl_dataC2Ev,"axG",@progbits,_ZNSt12_Vector_baseISt6vectorIdSaIdEESaIS2_EE17_Vector_impl_dataC5Ev,comdat
	.align 2
	.weak	_ZNSt12_Vector_baseISt6vectorIdSaIdEESaIS2_EE17_Vector_impl_dataC2Ev
	.type	_ZNSt12_Vector_baseISt6vectorIdSaIdEESaIS2_EE17_Vector_impl_dataC2Ev, @function
_ZNSt12_Vector_baseISt6vectorIdSaIdEESaIS2_EE17_Vector_impl_dataC2Ev:
.LFB3941:
	.cfi_startproc
	endbr64
	pushq	%rbp
	.cfi_def_cfa_offset 16
	.cfi_offset 6, -16
	movq	%rsp, %rbp
	.cfi_def_cfa_register 6
	movq	%rdi, -8(%rbp)
	movq	-8(%rbp), %rax
	movq	$0, (%rax)
	movq	-8(%rbp), %rax
	movq	$0, 8(%rax)
	movq	-8(%rbp), %rax
	movq	$0, 16(%rax)
	nop
	popq	%rbp
	.cfi_def_cfa 7, 8
	ret
	.cfi_endproc
.LFE3941:
	.size	_ZNSt12_Vector_baseISt6vectorIdSaIdEESaIS2_EE17_Vector_impl_dataC2Ev, .-_ZNSt12_Vector_baseISt6vectorIdSaIdEESaIS2_EE17_Vector_impl_dataC2Ev
	.weak	_ZNSt12_Vector_baseISt6vectorIdSaIdEESaIS2_EE17_Vector_impl_dataC1Ev
	.set	_ZNSt12_Vector_baseISt6vectorIdSaIdEESaIS2_EE17_Vector_impl_dataC1Ev,_ZNSt12_Vector_baseISt6vectorIdSaIdEESaIS2_EE17_Vector_impl_dataC2Ev
	.section	.text._ZNSt12_Vector_baseISt6vectorIdSaIdEESaIS2_EE13_M_deallocateEPS2_m,"axG",@progbits,_ZNSt12_Vector_baseISt6vectorIdSaIdEESaIS2_EE13_M_deallocateEPS2_m,comdat
	.align 2
	.weak	_ZNSt12_Vector_baseISt6vectorIdSaIdEESaIS2_EE13_M_deallocateEPS2_m
	.type	_ZNSt12_Vector_baseISt6vectorIdSaIdEESaIS2_EE13_M_deallocateEPS2_m, @function
_ZNSt12_Vector_baseISt6vectorIdSaIdEESaIS2_EE13_M_deallocateEPS2_m:
.LFB3943:
	.cfi_startproc
	endbr64
	pushq	%rbp
	.cfi_def_cfa_offset 16
	.cfi_offset 6, -16
	movq	%rsp, %rbp
	.cfi_def_cfa_register 6
	subq	$32, %rsp
	movq	%rdi, -8(%rbp)
	movq	%rsi, -16(%rbp)
	movq	%rdx, -24(%rbp)
	cmpq	$0, -16(%rbp)
	je	.L486
	movq	-8(%rbp), %rax
	movq	-24(%rbp), %rdx
	movq	-16(%rbp), %rcx
	movq	%rcx, %rsi
	movq	%rax, %rdi
	call	_ZNSt16allocator_traitsISaISt6vectorIdSaIdEEEE10deallocateERS3_PS2_m
.L486:
	nop
	leave
	.cfi_def_cfa 7, 8
	ret
	.cfi_endproc
.LFE3943:
	.size	_ZNSt12_Vector_baseISt6vectorIdSaIdEESaIS2_EE13_M_deallocateEPS2_m, .-_ZNSt12_Vector_baseISt6vectorIdSaIdEESaIS2_EE13_M_deallocateEPS2_m
	.section	.text._ZN9__gnu_cxx17__normal_iteratorIPSt6vectorIdSaIdEES1_IS3_SaIS3_EEEC2ERKS4_,"axG",@progbits,_ZN9__gnu_cxx17__normal_iteratorIPSt6vectorIdSaIdEES1_IS3_SaIS3_EEEC5ERKS4_,comdat
	.align 2
	.weak	_ZN9__gnu_cxx17__normal_iteratorIPSt6vectorIdSaIdEES1_IS3_SaIS3_EEEC2ERKS4_
	.type	_ZN9__gnu_cxx17__normal_iteratorIPSt6vectorIdSaIdEES1_IS3_SaIS3_EEEC2ERKS4_, @function
_ZN9__gnu_cxx17__normal_iteratorIPSt6vectorIdSaIdEES1_IS3_SaIS3_EEEC2ERKS4_:
.LFB3945:
	.cfi_startproc
	endbr64
	pushq	%rbp
	.cfi_def_cfa_offset 16
	.cfi_offset 6, -16
	movq	%rsp, %rbp
	.cfi_def_cfa_register 6
	movq	%rdi, -8(%rbp)
	movq	%rsi, -16(%rbp)
	movq	-16(%rbp), %rax
	movq	(%rax), %rdx
	movq	-8(%rbp), %rax
	movq	%rdx, (%rax)
	nop
	popq	%rbp
	.cfi_def_cfa 7, 8
	ret
	.cfi_endproc
.LFE3945:
	.size	_ZN9__gnu_cxx17__normal_iteratorIPSt6vectorIdSaIdEES1_IS3_SaIS3_EEEC2ERKS4_, .-_ZN9__gnu_cxx17__normal_iteratorIPSt6vectorIdSaIdEES1_IS3_SaIS3_EEEC2ERKS4_
	.weak	_ZN9__gnu_cxx17__normal_iteratorIPSt6vectorIdSaIdEES1_IS3_SaIS3_EEEC1ERKS4_
	.set	_ZN9__gnu_cxx17__normal_iteratorIPSt6vectorIdSaIdEES1_IS3_SaIS3_EEEC1ERKS4_,_ZN9__gnu_cxx17__normal_iteratorIPSt6vectorIdSaIdEES1_IS3_SaIS3_EEEC2ERKS4_
	.section	.text._ZNK9__gnu_cxx17__normal_iteratorIPSt6vectorIdSaIdEES1_IS3_SaIS3_EEE4baseEv,"axG",@progbits,_ZNK9__gnu_cxx17__normal_iteratorIPSt6vectorIdSaIdEES1_IS3_SaIS3_EEE4baseEv,comdat
	.align 2
	.weak	_ZNK9__gnu_cxx17__normal_iteratorIPSt6vectorIdSaIdEES1_IS3_SaIS3_EEE4baseEv
	.type	_ZNK9__gnu_cxx17__normal_iteratorIPSt6vectorIdSaIdEES1_IS3_SaIS3_EEE4baseEv, @function
_ZNK9__gnu_cxx17__normal_iteratorIPSt6vectorIdSaIdEES1_IS3_SaIS3_EEE4baseEv:
.LFB3947:
	.cfi_startproc
	endbr64
	pushq	%rbp
	.cfi_def_cfa_offset 16
	.cfi_offset 6, -16
	movq	%rsp, %rbp
	.cfi_def_cfa_register 6
	movq	%rdi, -8(%rbp)
	movq	-8(%rbp), %rax
	popq	%rbp
	.cfi_def_cfa 7, 8
	ret
	.cfi_endproc
.LFE3947:
	.size	_ZNK9__gnu_cxx17__normal_iteratorIPSt6vectorIdSaIdEES1_IS3_SaIS3_EEE4baseEv, .-_ZNK9__gnu_cxx17__normal_iteratorIPSt6vectorIdSaIdEES1_IS3_SaIS3_EEE4baseEv
	.section	.text._ZN9__gnu_cxx14__alloc_traitsISaIdEdE17_S_select_on_copyERKS1_,"axG",@progbits,_ZN9__gnu_cxx14__alloc_traitsISaIdEdE17_S_select_on_copyERKS1_,comdat
	.weak	_ZN9__gnu_cxx14__alloc_traitsISaIdEdE17_S_select_on_copyERKS1_
	.type	_ZN9__gnu_cxx14__alloc_traitsISaIdEdE17_S_select_on_copyERKS1_, @function
_ZN9__gnu_cxx14__alloc_traitsISaIdEdE17_S_select_on_copyERKS1_:
.LFB3948:
	.cfi_startproc
	endbr64
	pushq	%rbp
	.cfi_def_cfa_offset 16
	.cfi_offset 6, -16
	movq	%rsp, %rbp
	.cfi_def_cfa_register 6
	subq	$32, %rsp
	movq	%rdi, -24(%rbp)
	movq	%rsi, -32(%rbp)
	movq	%fs:40, %rax
	movq	%rax, -8(%rbp)
	xorl	%eax, %eax
	movq	-24(%rbp), %rax
	movq	-32(%rbp), %rdx
	movq	%rdx, %rsi
	movq	%rax, %rdi
	call	_ZNSt16allocator_traitsISaIdEE37select_on_container_copy_constructionERKS0_
	movq	-8(%rbp), %rax
	subq	%fs:40, %rax
	je	.L492
	call	__stack_chk_fail@PLT
.L492:
	movq	-24(%rbp), %rax
	leave
	.cfi_def_cfa 7, 8
	ret
	.cfi_endproc
.LFE3948:
	.size	_ZN9__gnu_cxx14__alloc_traitsISaIdEdE17_S_select_on_copyERKS1_, .-_ZN9__gnu_cxx14__alloc_traitsISaIdEdE17_S_select_on_copyERKS1_
	.section	.text._ZNKSt12_Vector_baseIdSaIdEE19_M_get_Tp_allocatorEv,"axG",@progbits,_ZNKSt12_Vector_baseIdSaIdEE19_M_get_Tp_allocatorEv,comdat
	.align 2
	.weak	_ZNKSt12_Vector_baseIdSaIdEE19_M_get_Tp_allocatorEv
	.type	_ZNKSt12_Vector_baseIdSaIdEE19_M_get_Tp_allocatorEv, @function
_ZNKSt12_Vector_baseIdSaIdEE19_M_get_Tp_allocatorEv:
.LFB3949:
	.cfi_startproc
	endbr64
	pushq	%rbp
	.cfi_def_cfa_offset 16
	.cfi_offset 6, -16
	movq	%rsp, %rbp
	.cfi_def_cfa_register 6
	movq	%rdi, -8(%rbp)
	movq	-8(%rbp), %rax
	popq	%rbp
	.cfi_def_cfa 7, 8
	ret
	.cfi_endproc
.LFE3949:
	.size	_ZNKSt12_Vector_baseIdSaIdEE19_M_get_Tp_allocatorEv, .-_ZNKSt12_Vector_baseIdSaIdEE19_M_get_Tp_allocatorEv
	.section	.text._ZNSt12_Vector_baseIdSaIdEEC2EmRKS0_,"axG",@progbits,_ZNSt12_Vector_baseIdSaIdEEC5EmRKS0_,comdat
	.align 2
	.weak	_ZNSt12_Vector_baseIdSaIdEEC2EmRKS0_
	.type	_ZNSt12_Vector_baseIdSaIdEEC2EmRKS0_, @function
_ZNSt12_Vector_baseIdSaIdEEC2EmRKS0_:
.LFB3951:
	.cfi_startproc
	.cfi_personality 0x9b,DW.ref.__gxx_personality_v0
	.cfi_lsda 0x1b,.LLSDA3951
	endbr64
	pushq	%rbp
	.cfi_def_cfa_offset 16
	.cfi_offset 6, -16
	movq	%rsp, %rbp
	.cfi_def_cfa_register 6
	pushq	%rbx
	subq	$40, %rsp
	.cfi_offset 3, -24
	movq	%rdi, -24(%rbp)
	movq	%rsi, -32(%rbp)
	movq	%rdx, -40(%rbp)
	movq	-24(%rbp), %rax
	movq	-40(%rbp), %rdx
	movq	%rdx, %rsi
	movq	%rax, %rdi
	call	_ZNSt12_Vector_baseIdSaIdEE12_Vector_implC1ERKS0_
	movq	-32(%rbp), %rdx
	movq	-24(%rbp), %rax
	movq	%rdx, %rsi
	movq	%rax, %rdi
.LEHB163:
	call	_ZNSt12_Vector_baseIdSaIdEE17_M_create_storageEm
.LEHE163:
	jmp	.L498
.L497:
	endbr64
	movq	%rax, %rbx
	movq	-24(%rbp), %rax
	movq	%rax, %rdi
	call	_ZNSt12_Vector_baseIdSaIdEE12_Vector_implD1Ev
	movq	%rbx, %rax
	movq	%rax, %rdi
.LEHB164:
	call	_Unwind_Resume@PLT
.LEHE164:
.L498:
	movq	-8(%rbp), %rbx
	leave
	.cfi_def_cfa 7, 8
	ret
	.cfi_endproc
.LFE3951:
	.section	.gcc_except_table
.LLSDA3951:
	.byte	0xff
	.byte	0xff
	.byte	0x1
	.uleb128 .LLSDACSE3951-.LLSDACSB3951
.LLSDACSB3951:
	.uleb128 .LEHB163-.LFB3951
	.uleb128 .LEHE163-.LEHB163
	.uleb128 .L497-.LFB3951
	.uleb128 0
	.uleb128 .LEHB164-.LFB3951
	.uleb128 .LEHE164-.LEHB164
	.uleb128 0
	.uleb128 0
.LLSDACSE3951:
	.section	.text._ZNSt12_Vector_baseIdSaIdEEC2EmRKS0_,"axG",@progbits,_ZNSt12_Vector_baseIdSaIdEEC5EmRKS0_,comdat
	.size	_ZNSt12_Vector_baseIdSaIdEEC2EmRKS0_, .-_ZNSt12_Vector_baseIdSaIdEEC2EmRKS0_
	.weak	_ZNSt12_Vector_baseIdSaIdEEC1EmRKS0_
	.set	_ZNSt12_Vector_baseIdSaIdEEC1EmRKS0_,_ZNSt12_Vector_baseIdSaIdEEC2EmRKS0_
	.section	.text._ZNKSt6vectorIdSaIdEE5beginEv,"axG",@progbits,_ZNKSt6vectorIdSaIdEE5beginEv,comdat
	.align 2
	.weak	_ZNKSt6vectorIdSaIdEE5beginEv
	.type	_ZNKSt6vectorIdSaIdEE5beginEv, @function
_ZNKSt6vectorIdSaIdEE5beginEv:
.LFB3953:
	.cfi_startproc
	endbr64
	pushq	%rbp
	.cfi_def_cfa_offset 16
	.cfi_offset 6, -16
	movq	%rsp, %rbp
	.cfi_def_cfa_register 6
	subq	$32, %rsp
	movq	%rdi, -24(%rbp)
	movq	%fs:40, %rax
	movq	%rax, -8(%rbp)
	xorl	%eax, %eax
	movq	-24(%rbp), %rdx
	leaq	-16(%rbp), %rax
	movq	%rdx, %rsi
	movq	%rax, %rdi
	call	_ZN9__gnu_cxx17__normal_iteratorIPKdSt6vectorIdSaIdEEEC1ERKS2_
	movq	-16(%rbp), %rax
	movq	-8(%rbp), %rdx
	subq	%fs:40, %rdx
	je	.L501
	call	__stack_chk_fail@PLT
.L501:
	leave
	.cfi_def_cfa 7, 8
	ret
	.cfi_endproc
.LFE3953:
	.size	_ZNKSt6vectorIdSaIdEE5beginEv, .-_ZNKSt6vectorIdSaIdEE5beginEv
	.section	.text._ZNKSt6vectorIdSaIdEE3endEv,"axG",@progbits,_ZNKSt6vectorIdSaIdEE3endEv,comdat
	.align 2
	.weak	_ZNKSt6vectorIdSaIdEE3endEv
	.type	_ZNKSt6vectorIdSaIdEE3endEv, @function
_ZNKSt6vectorIdSaIdEE3endEv:
.LFB3954:
	.cfi_startproc
	endbr64
	pushq	%rbp
	.cfi_def_cfa_offset 16
	.cfi_offset 6, -16
	movq	%rsp, %rbp
	.cfi_def_cfa_register 6
	subq	$32, %rsp
	movq	%rdi, -24(%rbp)
	movq	%fs:40, %rax
	movq	%rax, -8(%rbp)
	xorl	%eax, %eax
	movq	-24(%rbp), %rax
	leaq	8(%rax), %rdx
	leaq	-16(%rbp), %rax
	movq	%rdx, %rsi
	movq	%rax, %rdi
	call	_ZN9__gnu_cxx17__normal_iteratorIPKdSt6vectorIdSaIdEEEC1ERKS2_
	movq	-16(%rbp), %rax
	movq	-8(%rbp), %rdx
	subq	%fs:40, %rdx
	je	.L504
	call	__stack_chk_fail@PLT
.L504:
	leave
	.cfi_def_cfa 7, 8
	ret
	.cfi_endproc
.LFE3954:
	.size	_ZNKSt6vectorIdSaIdEE3endEv, .-_ZNKSt6vectorIdSaIdEE3endEv
	.section	.text._ZSt22__uninitialized_copy_aIN9__gnu_cxx17__normal_iteratorIPKdSt6vectorIdSaIdEEEEPddET0_T_SA_S9_RSaIT1_E,"axG",@progbits,_ZSt22__uninitialized_copy_aIN9__gnu_cxx17__normal_iteratorIPKdSt6vectorIdSaIdEEEEPddET0_T_SA_S9_RSaIT1_E,comdat
	.weak	_ZSt22__uninitialized_copy_aIN9__gnu_cxx17__normal_iteratorIPKdSt6vectorIdSaIdEEEEPddET0_T_SA_S9_RSaIT1_E
	.type	_ZSt22__uninitialized_copy_aIN9__gnu_cxx17__normal_iteratorIPKdSt6vectorIdSaIdEEEEPddET0_T_SA_S9_RSaIT1_E, @function
_ZSt22__uninitialized_copy_aIN9__gnu_cxx17__normal_iteratorIPKdSt6vectorIdSaIdEEEEPddET0_T_SA_S9_RSaIT1_E:
.LFB3955:
	.cfi_startproc
	endbr64
	pushq	%rbp
	.cfi_def_cfa_offset 16
	.cfi_offset 6, -16
	movq	%rsp, %rbp
	.cfi_def_cfa_register 6
	subq	$32, %rsp
	movq	%rdi, -8(%rbp)
	movq	%rsi, -16(%rbp)
	movq	%rdx, -24(%rbp)
	movq	%rcx, -32(%rbp)
	movq	-24(%rbp), %rdx
	movq	-16(%rbp), %rcx
	movq	-8(%rbp), %rax
	movq	%rcx, %rsi
	movq	%rax, %rdi
	call	_ZSt18uninitialized_copyIN9__gnu_cxx17__normal_iteratorIPKdSt6vectorIdSaIdEEEEPdET0_T_SA_S9_
	leave
	.cfi_def_cfa 7, 8
	ret
	.cfi_endproc
.LFE3955:
	.size	_ZSt22__uninitialized_copy_aIN9__gnu_cxx17__normal_iteratorIPKdSt6vectorIdSaIdEEEEPddET0_T_SA_S9_RSaIT1_E, .-_ZSt22__uninitialized_copy_aIN9__gnu_cxx17__normal_iteratorIPKdSt6vectorIdSaIdEEEEPddET0_T_SA_S9_RSaIT1_E
	.section	.text._ZSt4moveIRdEONSt16remove_referenceIT_E4typeEOS2_,"axG",@progbits,_ZSt4moveIRdEONSt16remove_referenceIT_E4typeEOS2_,comdat
	.weak	_ZSt4moveIRdEONSt16remove_referenceIT_E4typeEOS2_
	.type	_ZSt4moveIRdEONSt16remove_referenceIT_E4typeEOS2_, @function
_ZSt4moveIRdEONSt16remove_referenceIT_E4typeEOS2_:
.LFB3956:
	.cfi_startproc
	endbr64
	pushq	%rbp
	.cfi_def_cfa_offset 16
	.cfi_offset 6, -16
	movq	%rsp, %rbp
	.cfi_def_cfa_register 6
	movq	%rdi, -8(%rbp)
	movq	-8(%rbp), %rax
	popq	%rbp
	.cfi_def_cfa 7, 8
	ret
	.cfi_endproc
.LFE3956:
	.size	_ZSt4moveIRdEONSt16remove_referenceIT_E4typeEOS2_, .-_ZSt4moveIRdEONSt16remove_referenceIT_E4typeEOS2_
	.section	.text._ZNSt6vectorIdSaIdEE12emplace_backIJdEEEvDpOT_,"axG",@progbits,_ZNSt6vectorIdSaIdEE12emplace_backIJdEEEvDpOT_,comdat
	.align 2
	.weak	_ZNSt6vectorIdSaIdEE12emplace_backIJdEEEvDpOT_
	.type	_ZNSt6vectorIdSaIdEE12emplace_backIJdEEEvDpOT_, @function
_ZNSt6vectorIdSaIdEE12emplace_backIJdEEEvDpOT_:
.LFB3957:
	.cfi_startproc
	endbr64
	pushq	%rbp
	.cfi_def_cfa_offset 16
	.cfi_offset 6, -16
	movq	%rsp, %rbp
	.cfi_def_cfa_register 6
	pushq	%rbx
	subq	$24, %rsp
	.cfi_offset 3, -24
	movq	%rdi, -24(%rbp)
	movq	%rsi, -32(%rbp)
	movq	-24(%rbp), %rax
	movq	8(%rax), %rdx
	movq	-24(%rbp), %rax
	movq	16(%rax), %rax
	cmpq	%rax, %rdx
	je	.L510
	movq	-32(%rbp), %rax
	movq	%rax, %rdi
	call	_ZSt7forwardIdEOT_RNSt16remove_referenceIS0_E4typeE
	movq	%rax, %rdx
	movq	-24(%rbp), %rax
	movq	8(%rax), %rcx
	movq	-24(%rbp), %rax
	movq	%rcx, %rsi
	movq	%rax, %rdi
	call	_ZNSt16allocator_traitsISaIdEE9constructIdJdEEEvRS0_PT_DpOT0_
	movq	-24(%rbp), %rax
	movq	8(%rax), %rax
	leaq	8(%rax), %rdx
	movq	-24(%rbp), %rax
	movq	%rdx, 8(%rax)
	jmp	.L512
.L510:
	movq	-32(%rbp), %rax
	movq	%rax, %rdi
	call	_ZSt7forwardIdEOT_RNSt16remove_referenceIS0_E4typeE
	movq	%rax, %rbx
	movq	-24(%rbp), %rax
	movq	%rax, %rdi
	call	_ZNSt6vectorIdSaIdEE3endEv
	movq	%rax, %rcx
	movq	-24(%rbp), %rax
	movq	%rbx, %rdx
	movq	%rcx, %rsi
	movq	%rax, %rdi
	call	_ZNSt6vectorIdSaIdEE17_M_realloc_insertIJdEEEvN9__gnu_cxx17__normal_iteratorIPdS1_EEDpOT_
.L512:
	nop
	movq	-8(%rbp), %rbx
	leave
	.cfi_def_cfa 7, 8
	ret
	.cfi_endproc
.LFE3957:
	.size	_ZNSt6vectorIdSaIdEE12emplace_backIJdEEEvDpOT_, .-_ZNSt6vectorIdSaIdEE12emplace_backIJdEEEvDpOT_
	.section	.text._ZNSt16allocator_traitsISaIdEE9constructIdJRKdEEEvRS0_PT_DpOT0_,"axG",@progbits,_ZNSt16allocator_traitsISaIdEE9constructIdJRKdEEEvRS0_PT_DpOT0_,comdat
	.weak	_ZNSt16allocator_traitsISaIdEE9constructIdJRKdEEEvRS0_PT_DpOT0_
	.type	_ZNSt16allocator_traitsISaIdEE9constructIdJRKdEEEvRS0_PT_DpOT0_, @function
_ZNSt16allocator_traitsISaIdEE9constructIdJRKdEEEvRS0_PT_DpOT0_:
.LFB3958:
	.cfi_startproc
	endbr64
	pushq	%rbp
	.cfi_def_cfa_offset 16
	.cfi_offset 6, -16
	movq	%rsp, %rbp
	.cfi_def_cfa_register 6
	subq	$32, %rsp
	movq	%rdi, -8(%rbp)
	movq	%rsi, -16(%rbp)
	movq	%rdx, -24(%rbp)
	movq	-24(%rbp), %rax
	movq	%rax, %rdi
	call	_ZSt7forwardIRKdEOT_RNSt16remove_referenceIS2_E4typeE
	movq	%rax, %rdx
	movq	-16(%rbp), %rcx
	movq	-8(%rbp), %rax
	movq	%rcx, %rsi
	movq	%rax, %rdi
	call	_ZN9__gnu_cxx13new_allocatorIdE9constructIdJRKdEEEvPT_DpOT0_
	nop
	leave
	.cfi_def_cfa 7, 8
	ret
	.cfi_endproc
.LFE3958:
	.size	_ZNSt16allocator_traitsISaIdEE9constructIdJRKdEEEvRS0_PT_DpOT0_, .-_ZNSt16allocator_traitsISaIdEE9constructIdJRKdEEEvRS0_PT_DpOT0_
	.section	.text._ZNSt6vectorIdSaIdEE3endEv,"axG",@progbits,_ZNSt6vectorIdSaIdEE3endEv,comdat
	.align 2
	.weak	_ZNSt6vectorIdSaIdEE3endEv
	.type	_ZNSt6vectorIdSaIdEE3endEv, @function
_ZNSt6vectorIdSaIdEE3endEv:
.LFB3959:
	.cfi_startproc
	endbr64
	pushq	%rbp
	.cfi_def_cfa_offset 16
	.cfi_offset 6, -16
	movq	%rsp, %rbp
	.cfi_def_cfa_register 6
	subq	$32, %rsp
	movq	%rdi, -24(%rbp)
	movq	%fs:40, %rax
	movq	%rax, -8(%rbp)
	xorl	%eax, %eax
	movq	-24(%rbp), %rax
	leaq	8(%rax), %rdx
	leaq	-16(%rbp), %rax
	movq	%rdx, %rsi
	movq	%rax, %rdi
	call	_ZN9__gnu_cxx17__normal_iteratorIPdSt6vectorIdSaIdEEEC1ERKS1_
	movq	-16(%rbp), %rax
	movq	-8(%rbp), %rdx
	subq	%fs:40, %rdx
	je	.L516
	call	__stack_chk_fail@PLT
.L516:
	leave
	.cfi_def_cfa 7, 8
	ret
	.cfi_endproc
.LFE3959:
	.size	_ZNSt6vectorIdSaIdEE3endEv, .-_ZNSt6vectorIdSaIdEE3endEv
	.section	.text._ZNSt6vectorIdSaIdEE15_S_use_relocateEv,"axG",@progbits,_ZNSt6vectorIdSaIdEE15_S_use_relocateEv,comdat
	.weak	_ZNSt6vectorIdSaIdEE15_S_use_relocateEv
	.type	_ZNSt6vectorIdSaIdEE15_S_use_relocateEv, @function
_ZNSt6vectorIdSaIdEE15_S_use_relocateEv:
.LFB3961:
	.cfi_startproc
	endbr64
	pushq	%rbp
	.cfi_def_cfa_offset 16
	.cfi_offset 6, -16
	movq	%rsp, %rbp
	.cfi_def_cfa_register 6
	subq	$16, %rsp
	movq	%fs:40, %rax
	movq	%rax, -8(%rbp)
	xorl	%eax, %eax
	call	_ZNSt6vectorIdSaIdEE19_S_nothrow_relocateESt17integral_constantIbLb1EE
	movq	-8(%rbp), %rdx
	subq	%fs:40, %rdx
	je	.L519
	call	__stack_chk_fail@PLT
.L519:
	leave
	.cfi_def_cfa 7, 8
	ret
	.cfi_endproc
.LFE3961:
	.size	_ZNSt6vectorIdSaIdEE15_S_use_relocateEv, .-_ZNSt6vectorIdSaIdEE15_S_use_relocateEv
	.section	.text._ZNSt6vectorIdSaIdEE19_S_nothrow_relocateESt17integral_constantIbLb1EE,"axG",@progbits,_ZNSt6vectorIdSaIdEE19_S_nothrow_relocateESt17integral_constantIbLb1EE,comdat
	.weak	_ZNSt6vectorIdSaIdEE19_S_nothrow_relocateESt17integral_constantIbLb1EE
	.type	_ZNSt6vectorIdSaIdEE19_S_nothrow_relocateESt17integral_constantIbLb1EE, @function
_ZNSt6vectorIdSaIdEE19_S_nothrow_relocateESt17integral_constantIbLb1EE:
.LFB3962:
	.cfi_startproc
	endbr64
	pushq	%rbp
	.cfi_def_cfa_offset 16
	.cfi_offset 6, -16
	movq	%rsp, %rbp
	.cfi_def_cfa_register 6
	movl	$1, %eax
	popq	%rbp
	.cfi_def_cfa 7, 8
	ret
	.cfi_endproc
.LFE3962:
	.size	_ZNSt6vectorIdSaIdEE19_S_nothrow_relocateESt17integral_constantIbLb1EE, .-_ZNSt6vectorIdSaIdEE19_S_nothrow_relocateESt17integral_constantIbLb1EE
	.section	.rodata
.LC95:
	.string	"vector::_M_realloc_insert"
	.section	.text._ZNSt6vectorIdSaIdEE17_M_realloc_insertIJRKdEEEvN9__gnu_cxx17__normal_iteratorIPdS1_EEDpOT_,"axG",@progbits,_ZNSt6vectorIdSaIdEE17_M_realloc_insertIJRKdEEEvN9__gnu_cxx17__normal_iteratorIPdS1_EEDpOT_,comdat
	.align 2
	.weak	_ZNSt6vectorIdSaIdEE17_M_realloc_insertIJRKdEEEvN9__gnu_cxx17__normal_iteratorIPdS1_EEDpOT_
	.type	_ZNSt6vectorIdSaIdEE17_M_realloc_insertIJRKdEEEvN9__gnu_cxx17__normal_iteratorIPdS1_EEDpOT_, @function
_ZNSt6vectorIdSaIdEE17_M_realloc_insertIJRKdEEEvN9__gnu_cxx17__normal_iteratorIPdS1_EEDpOT_:
.LFB3960:
	.cfi_startproc
	.cfi_personality 0x9b,DW.ref.__gxx_personality_v0
	.cfi_lsda 0x1b,.LLSDA3960
	endbr64
	pushq	%rbp
	.cfi_def_cfa_offset 16
	.cfi_offset 6, -16
	movq	%rsp, %rbp
	.cfi_def_cfa_register 6
	pushq	%rbx
	subq	$104, %rsp
	.cfi_offset 3, -24
	movq	%rdi, -88(%rbp)
	movq	%rsi, -96(%rbp)
	movq	%rdx, -104(%rbp)
	movq	%fs:40, %rax
	movq	%rax, -24(%rbp)
	xorl	%eax, %eax
	movq	-88(%rbp), %rax
	leaq	.LC95(%rip), %rdx
	movl	$1, %esi
	movq	%rax, %rdi
.LEHB165:
	call	_ZNKSt6vectorIdSaIdEE12_M_check_lenEmPKc
	movq	%rax, -64(%rbp)
	movq	-88(%rbp), %rax
	movq	(%rax), %rax
	movq	%rax, -56(%rbp)
	movq	-88(%rbp), %rax
	movq	8(%rax), %rax
	movq	%rax, -48(%rbp)
	movq	-88(%rbp), %rax
	movq	%rax, %rdi
	call	_ZNSt6vectorIdSaIdEE5beginEv
	movq	%rax, -80(%rbp)
	leaq	-80(%rbp), %rdx
	leaq	-96(%rbp), %rax
	movq	%rdx, %rsi
	movq	%rax, %rdi
	call	_ZN9__gnu_cxxmiIPdSt6vectorIdSaIdEEEENS_17__normal_iteratorIT_T0_E15difference_typeERKS8_SB_
	movq	%rax, -40(%rbp)
	movq	-88(%rbp), %rax
	movq	-64(%rbp), %rdx
	movq	%rdx, %rsi
	movq	%rax, %rdi
	call	_ZNSt12_Vector_baseIdSaIdEE11_M_allocateEm
.LEHE165:
	movq	%rax, -32(%rbp)
	movq	-32(%rbp), %rax
	movq	%rax, -72(%rbp)
	movq	-104(%rbp), %rax
	movq	%rax, %rdi
	call	_ZSt7forwardIRKdEOT_RNSt16remove_referenceIS2_E4typeE
	movq	%rax, %rdx
	movq	-40(%rbp), %rax
	leaq	0(,%rax,8), %rcx
	movq	-32(%rbp), %rax
	addq	%rax, %rcx
	movq	-88(%rbp), %rax
	movq	%rcx, %rsi
	movq	%rax, %rdi
	call	_ZNSt16allocator_traitsISaIdEE9constructIdJRKdEEEvRS0_PT_DpOT0_
	movq	$0, -72(%rbp)
	call	_ZNSt6vectorIdSaIdEE15_S_use_relocateEv
	testb	%al, %al
	je	.L523
	movq	-88(%rbp), %rax
	movq	%rax, %rdi
	call	_ZNSt12_Vector_baseIdSaIdEE19_M_get_Tp_allocatorEv
	movq	%rax, %rbx
	leaq	-96(%rbp), %rax
	movq	%rax, %rdi
	call	_ZNK9__gnu_cxx17__normal_iteratorIPdSt6vectorIdSaIdEEE4baseEv
	movq	(%rax), %rsi
	movq	-32(%rbp), %rdx
	movq	-56(%rbp), %rax
	movq	%rbx, %rcx
	movq	%rax, %rdi
	call	_ZNSt6vectorIdSaIdEE11_S_relocateEPdS2_S2_RS0_
	movq	%rax, -72(%rbp)
	addq	$8, -72(%rbp)
	movq	-88(%rbp), %rax
	movq	%rax, %rdi
	call	_ZNSt12_Vector_baseIdSaIdEE19_M_get_Tp_allocatorEv
	movq	%rax, %rbx
	leaq	-96(%rbp), %rax
	movq	%rax, %rdi
	call	_ZNK9__gnu_cxx17__normal_iteratorIPdSt6vectorIdSaIdEEE4baseEv
	movq	(%rax), %rax
	movq	-72(%rbp), %rdx
	movq	-48(%rbp), %rsi
	movq	%rbx, %rcx
	movq	%rax, %rdi
	call	_ZNSt6vectorIdSaIdEE11_S_relocateEPdS2_S2_RS0_
	movq	%rax, -72(%rbp)
	jmp	.L524
.L523:
	movq	-88(%rbp), %rax
	movq	%rax, %rdi
	call	_ZNSt12_Vector_baseIdSaIdEE19_M_get_Tp_allocatorEv
	movq	%rax, %rbx
	leaq	-96(%rbp), %rax
	movq	%rax, %rdi
	call	_ZNK9__gnu_cxx17__normal_iteratorIPdSt6vectorIdSaIdEEE4baseEv
	movq	(%rax), %rsi
	movq	-32(%rbp), %rdx
	movq	-56(%rbp), %rax
	movq	%rbx, %rcx
	movq	%rax, %rdi
.LEHB166:
	call	_ZSt34__uninitialized_move_if_noexcept_aIPdS0_SaIdEET0_T_S3_S2_RT1_
	movq	%rax, -72(%rbp)
	addq	$8, -72(%rbp)
	movq	-88(%rbp), %rax
	movq	%rax, %rdi
	call	_ZNSt12_Vector_baseIdSaIdEE19_M_get_Tp_allocatorEv
	movq	%rax, %rbx
	leaq	-96(%rbp), %rax
	movq	%rax, %rdi
	call	_ZNK9__gnu_cxx17__normal_iteratorIPdSt6vectorIdSaIdEEE4baseEv
	movq	(%rax), %rax
	movq	-72(%rbp), %rdx
	movq	-48(%rbp), %rsi
	movq	%rbx, %rcx
	movq	%rax, %rdi
	call	_ZSt34__uninitialized_move_if_noexcept_aIPdS0_SaIdEET0_T_S3_S2_RT1_
.LEHE166:
	movq	%rax, -72(%rbp)
.L524:
	call	_ZNSt6vectorIdSaIdEE15_S_use_relocateEv
	xorl	$1, %eax
	testb	%al, %al
	je	.L525
	movq	-88(%rbp), %rax
	movq	%rax, %rdi
	call	_ZNSt12_Vector_baseIdSaIdEE19_M_get_Tp_allocatorEv
	movq	%rax, %rdx
	movq	-48(%rbp), %rcx
	movq	-56(%rbp), %rax
	movq	%rcx, %rsi
	movq	%rax, %rdi
.LEHB167:
	call	_ZSt8_DestroyIPddEvT_S1_RSaIT0_E
.L525:
	movq	-88(%rbp), %rax
	movq	-88(%rbp), %rdx
	movq	16(%rdx), %rdx
	subq	-56(%rbp), %rdx
	sarq	$3, %rdx
	movq	-56(%rbp), %rcx
	movq	%rcx, %rsi
	movq	%rax, %rdi
	call	_ZNSt12_Vector_baseIdSaIdEE13_M_deallocateEPdm
.LEHE167:
	movq	-88(%rbp), %rax
	movq	-32(%rbp), %rdx
	movq	%rdx, (%rax)
	movq	-88(%rbp), %rax
	movq	-72(%rbp), %rdx
	movq	%rdx, 8(%rax)
	movq	-64(%rbp), %rax
	leaq	0(,%rax,8), %rdx
	movq	-32(%rbp), %rax
	addq	%rax, %rdx
	movq	-88(%rbp), %rax
	movq	%rdx, 16(%rax)
	nop
	movq	-24(%rbp), %rax
	subq	%fs:40, %rax
	je	.L530
	jmp	.L533
.L531:
	endbr64
	movq	%rax, %rdi
	call	__cxa_begin_catch@PLT
	cmpq	$0, -72(%rbp)
	jne	.L527
	movq	-40(%rbp), %rax
	leaq	0(,%rax,8), %rdx
	movq	-32(%rbp), %rax
	addq	%rax, %rdx
	movq	-88(%rbp), %rax
	movq	%rdx, %rsi
	movq	%rax, %rdi
	call	_ZNSt16allocator_traitsISaIdEE7destroyIdEEvRS0_PT_
	jmp	.L528
.L527:
	movq	-88(%rbp), %rax
	movq	%rax, %rdi
	call	_ZNSt12_Vector_baseIdSaIdEE19_M_get_Tp_allocatorEv
	movq	%rax, %rdx
	movq	-72(%rbp), %rcx
	movq	-32(%rbp), %rax
	movq	%rcx, %rsi
	movq	%rax, %rdi
.LEHB168:
	call	_ZSt8_DestroyIPddEvT_S1_RSaIT0_E
.L528:
	movq	-88(%rbp), %rax
	movq	-64(%rbp), %rdx
	movq	-32(%rbp), %rcx
	movq	%rcx, %rsi
	movq	%rax, %rdi
	call	_ZNSt12_Vector_baseIdSaIdEE13_M_deallocateEPdm
	call	__cxa_rethrow@PLT
.LEHE168:
.L532:
	endbr64
	movq	%rax, %rbx
	call	__cxa_end_catch@PLT
	movq	%rbx, %rax
	movq	%rax, %rdi
.LEHB169:
	call	_Unwind_Resume@PLT
.LEHE169:
.L533:
	call	__stack_chk_fail@PLT
.L530:
	movq	-8(%rbp), %rbx
	leave
	.cfi_def_cfa 7, 8
	ret
	.cfi_endproc
.LFE3960:
	.section	.gcc_except_table
	.align 4
.LLSDA3960:
	.byte	0xff
	.byte	0x9b
	.uleb128 .LLSDATT3960-.LLSDATTD3960
.LLSDATTD3960:
	.byte	0x1
	.uleb128 .LLSDACSE3960-.LLSDACSB3960
.LLSDACSB3960:
	.uleb128 .LEHB165-.LFB3960
	.uleb128 .LEHE165-.LEHB165
	.uleb128 0
	.uleb128 0
	.uleb128 .LEHB166-.LFB3960
	.uleb128 .LEHE166-.LEHB166
	.uleb128 .L531-.LFB3960
	.uleb128 0x1
	.uleb128 .LEHB167-.LFB3960
	.uleb128 .LEHE167-.LEHB167
	.uleb128 0
	.uleb128 0
	.uleb128 .LEHB168-.LFB3960
	.uleb128 .LEHE168-.LEHB168
	.uleb128 .L532-.LFB3960
	.uleb128 0
	.uleb128 .LEHB169-.LFB3960
	.uleb128 .LEHE169-.LEHB169
	.uleb128 0
	.uleb128 0
.LLSDACSE3960:
	.byte	0x1
	.byte	0
	.align 4
	.long	0

.LLSDATT3960:
	.section	.text._ZNSt6vectorIdSaIdEE17_M_realloc_insertIJRKdEEEvN9__gnu_cxx17__normal_iteratorIPdS1_EEDpOT_,"axG",@progbits,_ZNSt6vectorIdSaIdEE17_M_realloc_insertIJRKdEEEvN9__gnu_cxx17__normal_iteratorIPdS1_EEDpOT_,comdat
	.size	_ZNSt6vectorIdSaIdEE17_M_realloc_insertIJRKdEEEvN9__gnu_cxx17__normal_iteratorIPdS1_EEDpOT_, .-_ZNSt6vectorIdSaIdEE17_M_realloc_insertIJRKdEEEvN9__gnu_cxx17__normal_iteratorIPdS1_EEDpOT_
	.section	.text._ZN9__gnu_cxx13new_allocatorISt4pairIKNSt7__cxx1112basic_stringIcSt11char_traitsIcESaIcEEES7_EEC2Ev,"axG",@progbits,_ZN9__gnu_cxx13new_allocatorISt4pairIKNSt7__cxx1112basic_stringIcSt11char_traitsIcESaIcEEES7_EEC5Ev,comdat
	.align 2
	.weak	_ZN9__gnu_cxx13new_allocatorISt4pairIKNSt7__cxx1112basic_stringIcSt11char_traitsIcESaIcEEES7_EEC2Ev
	.type	_ZN9__gnu_cxx13new_allocatorISt4pairIKNSt7__cxx1112basic_stringIcSt11char_traitsIcESaIcEEES7_EEC2Ev, @function
_ZN9__gnu_cxx13new_allocatorISt4pairIKNSt7__cxx1112basic_stringIcSt11char_traitsIcESaIcEEES7_EEC2Ev:
.LFB3968:
	.cfi_startproc
	endbr64
	pushq	%rbp
	.cfi_def_cfa_offset 16
	.cfi_offset 6, -16
	movq	%rsp, %rbp
	.cfi_def_cfa_register 6
	movq	%rdi, -8(%rbp)
	nop
	popq	%rbp
	.cfi_def_cfa 7, 8
	ret
	.cfi_endproc
.LFE3968:
	.size	_ZN9__gnu_cxx13new_allocatorISt4pairIKNSt7__cxx1112basic_stringIcSt11char_traitsIcESaIcEEES7_EEC2Ev, .-_ZN9__gnu_cxx13new_allocatorISt4pairIKNSt7__cxx1112basic_stringIcSt11char_traitsIcESaIcEEES7_EEC2Ev
	.weak	_ZN9__gnu_cxx13new_allocatorISt4pairIKNSt7__cxx1112basic_stringIcSt11char_traitsIcESaIcEEES7_EEC1Ev
	.set	_ZN9__gnu_cxx13new_allocatorISt4pairIKNSt7__cxx1112basic_stringIcSt11char_traitsIcESaIcEEES7_EEC1Ev,_ZN9__gnu_cxx13new_allocatorISt4pairIKNSt7__cxx1112basic_stringIcSt11char_traitsIcESaIcEEES7_EEC2Ev
	.section	.text._ZN9__gnu_cxx13new_allocatorISt4pairIKNSt7__cxx1112basic_stringIcSt11char_traitsIcESaIcEEES7_EED2Ev,"axG",@progbits,_ZN9__gnu_cxx13new_allocatorISt4pairIKNSt7__cxx1112basic_stringIcSt11char_traitsIcESaIcEEES7_EED5Ev,comdat
	.align 2
	.weak	_ZN9__gnu_cxx13new_allocatorISt4pairIKNSt7__cxx1112basic_stringIcSt11char_traitsIcESaIcEEES7_EED2Ev
	.type	_ZN9__gnu_cxx13new_allocatorISt4pairIKNSt7__cxx1112basic_stringIcSt11char_traitsIcESaIcEEES7_EED2Ev, @function
_ZN9__gnu_cxx13new_allocatorISt4pairIKNSt7__cxx1112basic_stringIcSt11char_traitsIcESaIcEEES7_EED2Ev:
.LFB3971:
	.cfi_startproc
	endbr64
	pushq	%rbp
	.cfi_def_cfa_offset 16
	.cfi_offset 6, -16
	movq	%rsp, %rbp
	.cfi_def_cfa_register 6
	movq	%rdi, -8(%rbp)
	nop
	popq	%rbp
	.cfi_def_cfa 7, 8
	ret
	.cfi_endproc
.LFE3971:
	.size	_ZN9__gnu_cxx13new_allocatorISt4pairIKNSt7__cxx1112basic_stringIcSt11char_traitsIcESaIcEEES7_EED2Ev, .-_ZN9__gnu_cxx13new_allocatorISt4pairIKNSt7__cxx1112basic_stringIcSt11char_traitsIcESaIcEEES7_EED2Ev
	.weak	_ZN9__gnu_cxx13new_allocatorISt4pairIKNSt7__cxx1112basic_stringIcSt11char_traitsIcESaIcEEES7_EED1Ev
	.set	_ZN9__gnu_cxx13new_allocatorISt4pairIKNSt7__cxx1112basic_stringIcSt11char_traitsIcESaIcEEES7_EED1Ev,_ZN9__gnu_cxx13new_allocatorISt4pairIKNSt7__cxx1112basic_stringIcSt11char_traitsIcESaIcEEES7_EED2Ev
	.section	.text._ZNSaISt4pairIKNSt7__cxx1112basic_stringIcSt11char_traitsIcESaIcEEES5_EEC2ERKS8_,"axG",@progbits,_ZNSaISt4pairIKNSt7__cxx1112basic_stringIcSt11char_traitsIcESaIcEEES5_EEC5ERKS8_,comdat
	.align 2
	.weak	_ZNSaISt4pairIKNSt7__cxx1112basic_stringIcSt11char_traitsIcESaIcEEES5_EEC2ERKS8_
	.type	_ZNSaISt4pairIKNSt7__cxx1112basic_stringIcSt11char_traitsIcESaIcEEES5_EEC2ERKS8_, @function
_ZNSaISt4pairIKNSt7__cxx1112basic_stringIcSt11char_traitsIcESaIcEEES5_EEC2ERKS8_:
.LFB3974:
	.cfi_startproc
	endbr64
	pushq	%rbp
	.cfi_def_cfa_offset 16
	.cfi_offset 6, -16
	movq	%rsp, %rbp
	.cfi_def_cfa_register 6
	subq	$16, %rsp
	movq	%rdi, -8(%rbp)
	movq	%rsi, -16(%rbp)
	movq	-16(%rbp), %rdx
	movq	-8(%rbp), %rax
	movq	%rdx, %rsi
	movq	%rax, %rdi
	call	_ZN9__gnu_cxx13new_allocatorISt4pairIKNSt7__cxx1112basic_stringIcSt11char_traitsIcESaIcEEES7_EEC2ERKSA_
	nop
	leave
	.cfi_def_cfa 7, 8
	ret
	.cfi_endproc
.LFE3974:
	.size	_ZNSaISt4pairIKNSt7__cxx1112basic_stringIcSt11char_traitsIcESaIcEEES5_EEC2ERKS8_, .-_ZNSaISt4pairIKNSt7__cxx1112basic_stringIcSt11char_traitsIcESaIcEEES5_EEC2ERKS8_
	.weak	_ZNSaISt4pairIKNSt7__cxx1112basic_stringIcSt11char_traitsIcESaIcEEES5_EEC1ERKS8_
	.set	_ZNSaISt4pairIKNSt7__cxx1112basic_stringIcSt11char_traitsIcESaIcEEES5_EEC1ERKS8_,_ZNSaISt4pairIKNSt7__cxx1112basic_stringIcSt11char_traitsIcESaIcEEES5_EEC2ERKS8_
	.section	.text._ZNSt8_Rb_treeINSt7__cxx1112basic_stringIcSt11char_traitsIcESaIcEEESt4pairIKS5_S5_ESt10_Select1stIS8_ESt4lessIS5_ESaIS8_EEC2ERKSC_RKSD_,"axG",@progbits,_ZNSt8_Rb_treeINSt7__cxx1112basic_stringIcSt11char_traitsIcESaIcEEESt4pairIKS5_S5_ESt10_Select1stIS8_ESt4lessIS5_ESaIS8_EEC5ERKSC_RKSD_,comdat
	.align 2
	.weak	_ZNSt8_Rb_treeINSt7__cxx1112basic_stringIcSt11char_traitsIcESaIcEEESt4pairIKS5_S5_ESt10_Select1stIS8_ESt4lessIS5_ESaIS8_EEC2ERKSC_RKSD_
	.type	_ZNSt8_Rb_treeINSt7__cxx1112basic_stringIcSt11char_traitsIcESaIcEEESt4pairIKS5_S5_ESt10_Select1stIS8_ESt4lessIS5_ESaIS8_EEC2ERKSC_RKSD_, @function
_ZNSt8_Rb_treeINSt7__cxx1112basic_stringIcSt11char_traitsIcESaIcEEESt4pairIKS5_S5_ESt10_Select1stIS8_ESt4lessIS5_ESaIS8_EEC2ERKSC_RKSD_:
.LFB3977:
	.cfi_startproc
	.cfi_personality 0x9b,DW.ref.__gxx_personality_v0
	.cfi_lsda 0x1b,.LLSDA3977
	endbr64
	pushq	%rbp
	.cfi_def_cfa_offset 16
	.cfi_offset 6, -16
	movq	%rsp, %rbp
	.cfi_def_cfa_register 6
	pushq	%rbx
	subq	$56, %rsp
	.cfi_offset 3, -24
	movq	%rdi, -40(%rbp)
	movq	%rsi, -48(%rbp)
	movq	%rdx, -56(%rbp)
	movq	%fs:40, %rax
	movq	%rax, -24(%rbp)
	xorl	%eax, %eax
	movq	-40(%rbp), %rbx
	movq	-56(%rbp), %rdx
	leaq	-25(%rbp), %rax
	movq	%rdx, %rsi
	movq	%rax, %rdi
	call	_ZNSaISt13_Rb_tree_nodeISt4pairIKNSt7__cxx1112basic_stringIcSt11char_traitsIcESaIcEEES6_EEEC1IS8_EERKSaIT_E
	leaq	-25(%rbp), %rdx
	movq	-48(%rbp), %rax
	movq	%rax, %rsi
	movq	%rbx, %rdi
.LEHB170:
	call	_ZNSt8_Rb_treeINSt7__cxx1112basic_stringIcSt11char_traitsIcESaIcEEESt4pairIKS5_S5_ESt10_Select1stIS8_ESt4lessIS5_ESaIS8_EE13_Rb_tree_implISC_Lb1EEC1ERKSC_OSaISt13_Rb_tree_nodeIS8_EE
.LEHE170:
	leaq	-25(%rbp), %rax
	movq	%rax, %rdi
	call	_ZNSaISt13_Rb_tree_nodeISt4pairIKNSt7__cxx1112basic_stringIcSt11char_traitsIcESaIcEEES6_EEED1Ev
	nop
	movq	-24(%rbp), %rax
	subq	%fs:40, %rax
	je	.L539
	jmp	.L541
.L540:
	endbr64
	movq	%rax, %rbx
	leaq	-25(%rbp), %rax
	movq	%rax, %rdi
	call	_ZNSaISt13_Rb_tree_nodeISt4pairIKNSt7__cxx1112basic_stringIcSt11char_traitsIcESaIcEEES6_EEED1Ev
	movq	%rbx, %rax
	movq	%rax, %rdi
.LEHB171:
	call	_Unwind_Resume@PLT
.LEHE171:
.L541:
	call	__stack_chk_fail@PLT
.L539:
	movq	-8(%rbp), %rbx
	leave
	.cfi_def_cfa 7, 8
	ret
	.cfi_endproc
.LFE3977:
	.section	.gcc_except_table
.LLSDA3977:
	.byte	0xff
	.byte	0xff
	.byte	0x1
	.uleb128 .LLSDACSE3977-.LLSDACSB3977
.LLSDACSB3977:
	.uleb128 .LEHB170-.LFB3977
	.uleb128 .LEHE170-.LEHB170
	.uleb128 .L540-.LFB3977
	.uleb128 0
	.uleb128 .LEHB171-.LFB3977
	.uleb128 .LEHE171-.LEHB171
	.uleb128 0
	.uleb128 0
.LLSDACSE3977:
	.section	.text._ZNSt8_Rb_treeINSt7__cxx1112basic_stringIcSt11char_traitsIcESaIcEEESt4pairIKS5_S5_ESt10_Select1stIS8_ESt4lessIS5_ESaIS8_EEC2ERKSC_RKSD_,"axG",@progbits,_ZNSt8_Rb_treeINSt7__cxx1112basic_stringIcSt11char_traitsIcESaIcEEESt4pairIKS5_S5_ESt10_Select1stIS8_ESt4lessIS5_ESaIS8_EEC5ERKSC_RKSD_,comdat
	.size	_ZNSt8_Rb_treeINSt7__cxx1112basic_stringIcSt11char_traitsIcESaIcEEESt4pairIKS5_S5_ESt10_Select1stIS8_ESt4lessIS5_ESaIS8_EEC2ERKSC_RKSD_, .-_ZNSt8_Rb_treeINSt7__cxx1112basic_stringIcSt11char_traitsIcESaIcEEESt4pairIKS5_S5_ESt10_Select1stIS8_ESt4lessIS5_ESaIS8_EEC2ERKSC_RKSD_
	.weak	_ZNSt8_Rb_treeINSt7__cxx1112basic_stringIcSt11char_traitsIcESaIcEEESt4pairIKS5_S5_ESt10_Select1stIS8_ESt4lessIS5_ESaIS8_EEC1ERKSC_RKSD_
	.set	_ZNSt8_Rb_treeINSt7__cxx1112basic_stringIcSt11char_traitsIcESaIcEEESt4pairIKS5_S5_ESt10_Select1stIS8_ESt4lessIS5_ESaIS8_EEC1ERKSC_RKSD_,_ZNSt8_Rb_treeINSt7__cxx1112basic_stringIcSt11char_traitsIcESaIcEEESt4pairIKS5_S5_ESt10_Select1stIS8_ESt4lessIS5_ESaIS8_EEC2ERKSC_RKSD_
	.section	.text._ZNKSt16initializer_listISt4pairIKNSt7__cxx1112basic_stringIcSt11char_traitsIcESaIcEEES6_EE5beginEv,"axG",@progbits,_ZNKSt16initializer_listISt4pairIKNSt7__cxx1112basic_stringIcSt11char_traitsIcESaIcEEES6_EE5beginEv,comdat
	.align 2
	.weak	_ZNKSt16initializer_listISt4pairIKNSt7__cxx1112basic_stringIcSt11char_traitsIcESaIcEEES6_EE5beginEv
	.type	_ZNKSt16initializer_listISt4pairIKNSt7__cxx1112basic_stringIcSt11char_traitsIcESaIcEEES6_EE5beginEv, @function
_ZNKSt16initializer_listISt4pairIKNSt7__cxx1112basic_stringIcSt11char_traitsIcESaIcEEES6_EE5beginEv:
.LFB3979:
	.cfi_startproc
	endbr64
	pushq	%rbp
	.cfi_def_cfa_offset 16
	.cfi_offset 6, -16
	movq	%rsp, %rbp
	.cfi_def_cfa_register 6
	movq	%rdi, -8(%rbp)
	movq	-8(%rbp), %rax
	movq	(%rax), %rax
	popq	%rbp
	.cfi_def_cfa 7, 8
	ret
	.cfi_endproc
.LFE3979:
	.size	_ZNKSt16initializer_listISt4pairIKNSt7__cxx1112basic_stringIcSt11char_traitsIcESaIcEEES6_EE5beginEv, .-_ZNKSt16initializer_listISt4pairIKNSt7__cxx1112basic_stringIcSt11char_traitsIcESaIcEEES6_EE5beginEv
	.section	.text._ZNKSt16initializer_listISt4pairIKNSt7__cxx1112basic_stringIcSt11char_traitsIcESaIcEEES6_EE3endEv,"axG",@progbits,_ZNKSt16initializer_listISt4pairIKNSt7__cxx1112basic_stringIcSt11char_traitsIcESaIcEEES6_EE3endEv,comdat
	.align 2
	.weak	_ZNKSt16initializer_listISt4pairIKNSt7__cxx1112basic_stringIcSt11char_traitsIcESaIcEEES6_EE3endEv
