	.file	"main.cpp"
	.text
	.section	.rodata
	.type	_ZStL19piecewise_construct, @object
	.size	_ZStL19piecewise_construct, 1
_ZStL19piecewise_construct:
	.zero	1
	.local	_ZStL8__ioinit
	.comm	_ZStL8__ioinit,1,1
	.type	_ZStL13allocator_arg, @object
	.size	_ZStL13allocator_arg, 1
_ZStL13allocator_arg:
	.zero	1
	.type	_ZStL6ignore, @object
	.size	_ZStL6ignore, 1
_ZStL6ignore:
	.zero	1
	.align 4
	.type	_ZN5EigenL7DynamicE, @object
	.size	_ZN5EigenL7DynamicE, 4
_ZN5EigenL7DynamicE:
	.long	-1
	.align 4
	.type	_ZN5EigenL12DynamicIndexE, @object
	.size	_ZN5EigenL12DynamicIndexE, 4
_ZN5EigenL12DynamicIndexE:
	.long	16777215
	.align 4
	.type	_ZN5EigenL13UndefinedIncrE, @object
	.size	_ZN5EigenL13UndefinedIncrE, 4
_ZN5EigenL13UndefinedIncrE:
	.long	16777214
	.align 4
	.type	_ZN5EigenL8InfinityE, @object
	.size	_ZN5EigenL8InfinityE, 4
_ZN5EigenL8InfinityE:
	.long	-1
	.align 4
	.type	_ZN5EigenL8HugeCostE, @object
	.size	_ZN5EigenL8HugeCostE, 4
_ZN5EigenL8HugeCostE:
	.long	10000
	.align 4
	.type	_ZN5EigenL11RowMajorBitE, @object
	.size	_ZN5EigenL11RowMajorBitE, 4
_ZN5EigenL11RowMajorBitE:
	.long	1
	.align 4
	.type	_ZN5EigenL20EvalBeforeNestingBitE, @object
	.size	_ZN5EigenL20EvalBeforeNestingBitE, 4
_ZN5EigenL20EvalBeforeNestingBitE:
	.long	2
	.align 4
	.type	_ZN5EigenL22EvalBeforeAssigningBitE, @object
	.size	_ZN5EigenL22EvalBeforeAssigningBitE, 4
_ZN5EigenL22EvalBeforeAssigningBitE:
	.long	4
	.align 4
	.type	_ZN5EigenL15PacketAccessBitE, @object
	.size	_ZN5EigenL15PacketAccessBitE, 4
_ZN5EigenL15PacketAccessBitE:
	.long	8
	.align 4
	.type	_ZN5EigenL21ActualPacketAccessBitE, @object
	.size	_ZN5EigenL21ActualPacketAccessBitE, 4
_ZN5EigenL21ActualPacketAccessBitE:
	.long	8
	.align 4
	.type	_ZN5EigenL15LinearAccessBitE, @object
	.size	_ZN5EigenL15LinearAccessBitE, 4
_ZN5EigenL15LinearAccessBitE:
	.long	16
	.align 4
	.type	_ZN5EigenL9LvalueBitE, @object
	.size	_ZN5EigenL9LvalueBitE, 4
_ZN5EigenL9LvalueBitE:
	.long	32
	.align 4
	.type	_ZN5EigenL15DirectAccessBitE, @object
	.size	_ZN5EigenL15DirectAccessBitE, 4
_ZN5EigenL15DirectAccessBitE:
	.long	64
	.align 4
	.type	_ZN5EigenL10AlignedBitE, @object
	.size	_ZN5EigenL10AlignedBitE, 4
_ZN5EigenL10AlignedBitE:
	.long	128
	.align 4
	.type	_ZN5EigenL12NestByRefBitE, @object
	.size	_ZN5EigenL12NestByRefBitE, 4
_ZN5EigenL12NestByRefBitE:
	.long	256
	.align 4
	.type	_ZN5EigenL26NoPreferredStorageOrderBitE, @object
	.size	_ZN5EigenL26NoPreferredStorageOrderBitE, 4
_ZN5EigenL26NoPreferredStorageOrderBitE:
	.long	512
	.align 4
	.type	_ZN5EigenL19CompressedAccessBitE, @object
	.size	_ZN5EigenL19CompressedAccessBitE, 4
_ZN5EigenL19CompressedAccessBitE:
	.long	1024
	.align 4
	.type	_ZN5EigenL14HereditaryBitsE, @object
	.size	_ZN5EigenL14HereditaryBitsE, 4
_ZN5EigenL14HereditaryBitsE:
	.long	3
	.local	_ZN5EigenL4lastE
	.comm	_ZN5EigenL4lastE,1,1
	.local	_ZN5EigenL6lastp1E
	.comm	_ZN5EigenL6lastp1E,2,1
	.section	.text._ZN5Eigen8internal5all_tC2Ev,"axG",@progbits,_ZN5Eigen8internal5all_tC5Ev,comdat
	.align 2
	.weak	_ZN5Eigen8internal5all_tC2Ev
	.type	_ZN5Eigen8internal5all_tC2Ev, @function
_ZN5Eigen8internal5all_tC2Ev:
.LFB4802:
	.cfi_startproc
	endbr64
	pushq	%rbp
	.cfi_def_cfa_offset 16
	.cfi_offset 6, -16
	movq	%rsp, %rbp
	.cfi_def_cfa_register 6
	movq	%rdi, -8(%rbp)
	nop
	popq	%rbp
	.cfi_def_cfa 7, 8
	ret
	.cfi_endproc
.LFE4802:
	.size	_ZN5Eigen8internal5all_tC2Ev, .-_ZN5Eigen8internal5all_tC2Ev
	.weak	_ZN5Eigen8internal5all_tC1Ev
	.set	_ZN5Eigen8internal5all_tC1Ev,_ZN5Eigen8internal5all_tC2Ev
	.local	_ZN5EigenL3allE
	.comm	_ZN5EigenL3allE,1,1
	.section	.rodata
	.type	_ZN5Eigen12placeholdersL3allE, @object
	.size	_ZN5Eigen12placeholdersL3allE, 1
_ZN5Eigen12placeholdersL3allE:
	.zero	1
	.type	_ZN5Eigen12placeholdersL4lastE, @object
	.size	_ZN5Eigen12placeholdersL4lastE, 1
_ZN5Eigen12placeholdersL4lastE:
	.zero	1
	.type	_ZN5Eigen12placeholdersL3endE, @object
	.size	_ZN5Eigen12placeholdersL3endE, 2
_ZN5Eigen12placeholdersL3endE:
	.zero	2
	.align 4
	.type	_ZN5EigenL9AutoOrderE, @object
	.size	_ZN5EigenL9AutoOrderE, 4
_ZN5EigenL9AutoOrderE:
	.long	2
	.align 8
	.type	_ZN5Eigen8internalL18defaultL1CacheSizeE, @object
	.size	_ZN5Eigen8internalL18defaultL1CacheSizeE, 8
_ZN5Eigen8internalL18defaultL1CacheSizeE:
	.quad	32768
	.align 8
	.type	_ZN5Eigen8internalL18defaultL2CacheSizeE, @object
	.size	_ZN5Eigen8internalL18defaultL2CacheSizeE, 8
_ZN5Eigen8internalL18defaultL2CacheSizeE:
	.quad	262144
	.align 8
	.type	_ZN5Eigen8internalL18defaultL3CacheSizeE, @object
	.size	_ZN5Eigen8internalL18defaultL3CacheSizeE, 8
_ZN5Eigen8internalL18defaultL3CacheSizeE:
	.quad	2097152
	.section	.text._ZN6ConfigC2Ev,"axG",@progbits,_ZN6ConfigC5Ev,comdat
	.align 2
	.weak	_ZN6ConfigC2Ev
	.type	_ZN6ConfigC2Ev, @function
_ZN6ConfigC2Ev:
.LFB7350:
	.cfi_startproc
	endbr64
	pushq	%rbp
	.cfi_def_cfa_offset 16
	.cfi_offset 6, -16
	movq	%rsp, %rbp
	.cfi_def_cfa_register 6
	movq	%rdi, -8(%rbp)
	movq	-8(%rbp), %rax
	movsd	.LC0(%rip), %xmm0
	movsd	%xmm0, (%rax)
	movq	-8(%rbp), %rax
	pxor	%xmm0, %xmm0
	movsd	%xmm0, 8(%rax)
	movq	-8(%rbp), %rax
	movsd	.LC2(%rip), %xmm0
	movsd	%xmm0, 16(%rax)
	movq	-8(%rbp), %rax
	movsd	.LC3(%rip), %xmm0
	movsd	%xmm0, 24(%rax)
	movq	-8(%rbp), %rax
	movsd	.LC4(%rip), %xmm0
	movsd	%xmm0, 32(%rax)
	movq	-8(%rbp), %rax
	movsd	.LC5(%rip), %xmm0
	movsd	%xmm0, 40(%rax)
	movq	-8(%rbp), %rax
	movsd	.LC4(%rip), %xmm0
	movsd	%xmm0, 48(%rax)
	movq	-8(%rbp), %rax
	movsd	.LC5(%rip), %xmm0
	movsd	%xmm0, 56(%rax)
	movq	-8(%rbp), %rax
	movsd	.LC6(%rip), %xmm0
	movsd	%xmm0, 64(%rax)
	movq	-8(%rbp), %rax
	movsd	.LC6(%rip), %xmm0
	movsd	%xmm0, 72(%rax)
	movq	-8(%rbp), %rax
	movsd	.LC7(%rip), %xmm0
	movsd	%xmm0, 80(%rax)
	movq	-8(%rbp), %rax
	movsd	.LC8(%rip), %xmm0
	movsd	%xmm0, 88(%rax)
	nop
	popq	%rbp
	.cfi_def_cfa 7, 8
	ret
	.cfi_endproc
.LFE7350:
	.size	_ZN6ConfigC2Ev, .-_ZN6ConfigC2Ev
	.weak	_ZN6ConfigC1Ev
	.set	_ZN6ConfigC1Ev,_ZN6ConfigC2Ev
	.weak	_ZZN6Config12get_instanceEvE8instance
	.section	.bss._ZZN6Config12get_instanceEvE8instance,"awG",@nobits,_ZZN6Config12get_instanceEvE8instance,comdat
	.align 32
	.type	_ZZN6Config12get_instanceEvE8instance, @gnu_unique_object
	.size	_ZZN6Config12get_instanceEvE8instance, 96
_ZZN6Config12get_instanceEvE8instance:
	.zero	96
	.weak	_ZGVZN6Config12get_instanceEvE8instance
	.section	.bss._ZGVZN6Config12get_instanceEvE8instance,"awG",@nobits,_ZGVZN6Config12get_instanceEvE8instance,comdat
	.align 8
	.type	_ZGVZN6Config12get_instanceEvE8instance, @gnu_unique_object
	.size	_ZGVZN6Config12get_instanceEvE8instance, 8
_ZGVZN6Config12get_instanceEvE8instance:
	.zero	8
	.section	.text._ZN6Config12get_instanceEv,"axG",@progbits,_ZN6Config12get_instanceEv,comdat
	.weak	_ZN6Config12get_instanceEv
	.type	_ZN6Config12get_instanceEv, @function
_ZN6Config12get_instanceEv:
.LFB7352:
	.cfi_startproc
	endbr64
	pushq	%rbp
	.cfi_def_cfa_offset 16
	.cfi_offset 6, -16
	movq	%rsp, %rbp
	.cfi_def_cfa_register 6
	movzbl	_ZGVZN6Config12get_instanceEvE8instance(%rip), %eax
	testb	%al, %al
	sete	%al
	testb	%al, %al
	je	.L4
	leaq	_ZGVZN6Config12get_instanceEvE8instance(%rip), %rax
	movq	%rax, %rdi
	call	__cxa_guard_acquire@PLT
	testl	%eax, %eax
	setne	%al
	testb	%al, %al
	je	.L4
	leaq	_ZZN6Config12get_instanceEvE8instance(%rip), %rax
	movq	%rax, %rdi
	call	_ZN6ConfigC1Ev
	leaq	_ZGVZN6Config12get_instanceEvE8instance(%rip), %rax
	movq	%rax, %rdi
	call	__cxa_guard_release@PLT
.L4:
	leaq	_ZZN6Config12get_instanceEvE8instance(%rip), %rax
	popq	%rbp
	.cfi_def_cfa 7, 8
	ret
	.cfi_endproc
.LFE7352:
	.size	_ZN6Config12get_instanceEv, .-_ZN6Config12get_instanceEv
	.text
	.globl	_Z14calc_dw_windowN5Eigen6MatrixIdLi5ELi1ELi0ELi5ELi1EEER6Config
	.type	_Z14calc_dw_windowN5Eigen6MatrixIdLi5ELi1ELi0ELi5ELi1EEER6Config, @function
_Z14calc_dw_windowN5Eigen6MatrixIdLi5ELi1ELi0ELi5ELi1EEER6Config:
.LFB7353:
	.cfi_startproc
	endbr64
	pushq	%rbp
	.cfi_def_cfa_offset 16
	.cfi_offset 6, -16
	movq	%rsp, %rbp
	.cfi_def_cfa_register 6
	pushq	%r14
	pushq	%r13
	pushq	%r12
	pushq	%rbx
	subq	$144, %rsp
	.cfi_offset 14, -24
	.cfi_offset 13, -32
	.cfi_offset 12, -40
	.cfi_offset 3, -48
	movq	%rdi, -152(%rbp)
	movq	%rsi, -160(%rbp)
	movq	%rdx, -168(%rbp)
	movq	%fs:40, %rax
	movq	%rax, -40(%rbp)
	xorl	%eax, %eax
	movq	-168(%rbp), %rax
	leaq	40(%rax), %rdi
	movq	-168(%rbp), %rax
	leaq	32(%rax), %rcx
	movq	-168(%rbp), %rax
	leaq	8(%rax), %rdx
	movq	-168(%rbp), %rsi
	leaq	-112(%rbp), %rax
	movq	%rdi, %r8
	movq	%rax, %rdi
	call	_ZN5Eigen6MatrixIdLi4ELi1ELi0ELi4ELi1EEC1ERKdS3_S3_S3_
	movq	-160(%rbp), %rax
	movl	$4, %esi
	movq	%rax, %rdi
	call	_ZN5Eigen15DenseCoeffsBaseINS_6MatrixIdLi5ELi1ELi0ELi5ELi1EEELi1EEixEl
	movsd	(%rax), %xmm1
	movq	-168(%rbp), %rax
	movsd	56(%rax), %xmm2
	movq	-168(%rbp), %rax
	movsd	88(%rax), %xmm0
	mulsd	%xmm2, %xmm0
	addsd	%xmm1, %xmm0
	movsd	%xmm0, -120(%rbp)
	movq	-160(%rbp), %rax
	movl	$4, %esi
	movq	%rax, %rdi
	call	_ZN5Eigen15DenseCoeffsBaseINS_6MatrixIdLi5ELi1ELi0ELi5ELi1EEELi1EEixEl
	movsd	(%rax), %xmm1
	movq	-168(%rbp), %rax
	movsd	48(%rax), %xmm2
	movq	-168(%rbp), %rax
	movsd	88(%rax), %xmm0
	mulsd	%xmm2, %xmm0
	addsd	%xmm1, %xmm0
	movsd	%xmm0, -128(%rbp)
	movq	-160(%rbp), %rax
	movl	$2, %esi
	movq	%rax, %rdi
	call	_ZN5Eigen15DenseCoeffsBaseINS_6MatrixIdLi5ELi1ELi0ELi5ELi1EEELi1EEixEl
	movsd	(%rax), %xmm1
	movq	-168(%rbp), %rax
	movsd	24(%rax), %xmm2
	movq	-168(%rbp), %rax
	movsd	88(%rax), %xmm0
	mulsd	%xmm2, %xmm0
	addsd	%xmm1, %xmm0
	movsd	%xmm0, -136(%rbp)
	movq	-160(%rbp), %rax
	movl	$2, %esi
	movq	%rax, %rdi
	call	_ZN5Eigen15DenseCoeffsBaseINS_6MatrixIdLi5ELi1ELi0ELi5ELi1EEELi1EEixEl
	movsd	(%rax), %xmm1
	movq	-168(%rbp), %rax
	movsd	16(%rax), %xmm2
	movq	-168(%rbp), %rax
	movsd	88(%rax), %xmm0
	mulsd	%xmm2, %xmm0
	addsd	%xmm1, %xmm0
	movsd	%xmm0, -144(%rbp)
	leaq	-120(%rbp), %rdi
	leaq	-128(%rbp), %rcx
	leaq	-136(%rbp), %rdx
	leaq	-144(%rbp), %rsi
	leaq	-80(%rbp), %rax
	movq	%rdi, %r8
	movq	%rax, %rdi
	call	_ZN5Eigen6MatrixIdLi4ELi1ELi0ELi4ELi1EEC1ERKdS3_S3_S3_
	leaq	-80(%rbp), %rax
	movl	$3, %esi
	movq	%rax, %rdi
	call	_ZN5Eigen15DenseCoeffsBaseINS_6MatrixIdLi4ELi1ELi0ELi4ELi1EEELi1EEixEl
	movq	%rax, %rbx
	leaq	-112(%rbp), %rax
	movl	$3, %esi
	movq	%rax, %rdi
	call	_ZN5Eigen15DenseCoeffsBaseINS_6MatrixIdLi4ELi1ELi0ELi4ELi1EEELi1EEixEl
	movq	%rbx, %rsi
	movq	%rax, %rdi
	call	_ZSt3maxIdERKT_S2_S2_
	movq	%rax, %r13
	leaq	-80(%rbp), %rax
	movl	$2, %esi
	movq	%rax, %rdi
	call	_ZN5Eigen15DenseCoeffsBaseINS_6MatrixIdLi4ELi1ELi0ELi4ELi1EEELi1EEixEl
	movq	%rax, %rbx
	leaq	-112(%rbp), %rax
	movl	$2, %esi
	movq	%rax, %rdi
	call	_ZN5Eigen15DenseCoeffsBaseINS_6MatrixIdLi4ELi1ELi0ELi4ELi1EEELi1EEixEl
	movq	%rbx, %rsi
	movq	%rax, %rdi
	call	_ZSt3minIdERKT_S2_S2_
	movq	%rax, %r12
	leaq	-80(%rbp), %rax
	movl	$1, %esi
	movq	%rax, %rdi
	call	_ZN5Eigen15DenseCoeffsBaseINS_6MatrixIdLi4ELi1ELi0ELi4ELi1EEELi1EEixEl
	movq	%rax, %rbx
	leaq	-112(%rbp), %rax
	movl	$1, %esi
	movq	%rax, %rdi
	call	_ZN5Eigen15DenseCoeffsBaseINS_6MatrixIdLi4ELi1ELi0ELi4ELi1EEELi1EEixEl
	movq	%rbx, %rsi
	movq	%rax, %rdi
	call	_ZSt3maxIdERKT_S2_S2_
	movq	%rax, %rbx
	leaq	-80(%rbp), %rax
	movl	$0, %esi
	movq	%rax, %rdi
	call	_ZN5Eigen15DenseCoeffsBaseINS_6MatrixIdLi4ELi1ELi0ELi4ELi1EEELi1EEixEl
	movq	%rax, %r14
	leaq	-112(%rbp), %rax
	movl	$0, %esi
	movq	%rax, %rdi
	call	_ZN5Eigen15DenseCoeffsBaseINS_6MatrixIdLi4ELi1ELi0ELi4ELi1EEELi1EEixEl
	movq	%r14, %rsi
	movq	%rax, %rdi
	call	_ZSt3minIdERKT_S2_S2_
	movq	%rax, %rsi
	movq	-152(%rbp), %rax
	movq	%r13, %r8
	movq	%r12, %rcx
	movq	%rbx, %rdx
	movq	%rax, %rdi
	call	_ZN5Eigen6MatrixIdLi4ELi1ELi0ELi4ELi1EEC1ERKdS3_S3_S3_
	nop
	movq	-40(%rbp), %rax
	subq	%fs:40, %rax
	je	.L8
	call	__stack_chk_fail@PLT
.L8:
	movq	-152(%rbp), %rax
	addq	$144, %rsp
	popq	%rbx
	popq	%r12
	popq	%r13
	popq	%r14
	popq	%rbp
	.cfi_def_cfa 7, 8
	ret
	.cfi_endproc
.LFE7353:
	.size	_Z14calc_dw_windowN5Eigen6MatrixIdLi5ELi1ELi0ELi5ELi1EEER6Config, .-_Z14calc_dw_windowN5Eigen6MatrixIdLi5ELi1ELi0ELi5ELi1EEER6Config
	.globl	main
	.type	main, @function
main:
.LFB7355:
	.cfi_startproc
	.cfi_personality 0x9b,DW.ref.__gxx_personality_v0
	.cfi_lsda 0x1b,.LLSDA7355
	endbr64
	pushq	%rbp
	.cfi_def_cfa_offset 16
	.cfi_offset 6, -16
	movq	%rsp, %rbp
	.cfi_def_cfa_register 6
	pushq	%rbx
	subq	$216, %rsp
	.cfi_offset 3, -24
	movq	%fs:40, %rax
	movq	%rax, -24(%rbp)
	xorl	%eax, %eax
	call	_ZN6Config12get_instanceEv
	movq	%rax, -184(%rbp)
	movq	-184(%rbp), %rax
	movq	(%rax), %rax
	movq	%rax, %xmm0
	leaq	_ZSt4cout(%rip), %rax
	movq	%rax, %rdi
.LEHB0:
	call	_ZNSolsEd@PLT
	movq	_ZSt4endlIcSt11char_traitsIcEERSt13basic_ostreamIT_T0_ES6_@GOTPCREL(%rip), %rdx
	movq	%rdx, %rsi
	movq	%rax, %rdi
	call	_ZNSolsEPFRSoS_E@PLT
	leaq	-112(%rbp), %rax
	movq	%rax, %rdi
	call	_ZN5Eigen6MatrixIdLi5ELi1ELi0ELi5ELi1EEC1Ev
	pxor	%xmm0, %xmm0
	movsd	%xmm0, -224(%rbp)
	leaq	-176(%rbp), %rax
	leaq	-224(%rbp), %rdx
	leaq	-112(%rbp), %rcx
	movq	%rcx, %rsi
	movq	%rax, %rdi
	call	_ZN5Eigen9DenseBaseINS_6MatrixIdLi5ELi1ELi0ELi5ELi1EEEElsERKd
.LEHE0:
	pxor	%xmm0, %xmm0
	movsd	%xmm0, -216(%rbp)
	leaq	-216(%rbp), %rdx
	leaq	-176(%rbp), %rax
	movq	%rdx, %rsi
	movq	%rax, %rdi
.LEHB1:
	call	_ZN5Eigen16CommaInitializerINS_6MatrixIdLi5ELi1ELi0ELi5ELi1EEEEcmERKd
	movq	%rax, %rdx
	pxor	%xmm0, %xmm0
	movsd	%xmm0, -208(%rbp)
	leaq	-208(%rbp), %rax
	movq	%rax, %rsi
	movq	%rdx, %rdi
	call	_ZN5Eigen16CommaInitializerINS_6MatrixIdLi5ELi1ELi0ELi5ELi1EEEEcmERKd
	movq	%rax, %rdx
	movsd	.LC9(%rip), %xmm0
	movsd	%xmm0, -200(%rbp)
	leaq	-200(%rbp), %rax
	movq	%rax, %rsi
	movq	%rdx, %rdi
	call	_ZN5Eigen16CommaInitializerINS_6MatrixIdLi5ELi1ELi0ELi5ELi1EEEEcmERKd
	movq	%rax, %rdx
	pxor	%xmm0, %xmm0
	movsd	%xmm0, -192(%rbp)
	leaq	-192(%rbp), %rax
	movq	%rax, %rsi
	movq	%rdx, %rdi
	call	_ZN5Eigen16CommaInitializerINS_6MatrixIdLi5ELi1ELi0ELi5ELi1EEEEcmERKd
.LEHE1:
	leaq	-176(%rbp), %rax
	movq	%rax, %rdi
	call	_ZN5Eigen16CommaInitializerINS_6MatrixIdLi5ELi1ELi0ELi5ELi1EEEED1Ev
	leaq	-112(%rbp), %rax
	movl	$3, %esi
	movq	%rax, %rdi
.LEHB2:
	call	_ZN5Eigen15DenseCoeffsBaseINS_6MatrixIdLi5ELi1ELi0ELi5ELi1EEELi1EEixEl
	movq	(%rax), %rax
	movq	%rax, %xmm0
	leaq	_ZSt4cout(%rip), %rax
	movq	%rax, %rdi
	call	_ZNSolsEd@PLT
	movq	_ZSt4endlIcSt11char_traitsIcEERSt13basic_ostreamIT_T0_ES6_@GOTPCREL(%rip), %rdx
	movq	%rdx, %rsi
	movq	%rax, %rdi
	call	_ZNSolsEPFRSoS_E@PLT
	leaq	-112(%rbp), %rdx
	leaq	-64(%rbp), %rax
	movq	%rdx, %rsi
	movq	%rax, %rdi
	call	_ZN5Eigen6MatrixIdLi5ELi1ELi0ELi5ELi1EEC1ERKS1_
	leaq	-144(%rbp), %rax
	movq	-184(%rbp), %rdx
	leaq	-64(%rbp), %rcx
	movq	%rcx, %rsi
	movq	%rax, %rdi
	call	_Z14calc_dw_windowN5Eigen6MatrixIdLi5ELi1ELi0ELi5ELi1EEER6Config
	leaq	-144(%rbp), %rax
	movl	$3, %esi
	movq	%rax, %rdi
	call	_ZN5Eigen15DenseCoeffsBaseINS_6MatrixIdLi4ELi1ELi0ELi4ELi1EEELi1EEixEl
	movq	(%rax), %rax
	movq	%rax, %xmm0
	leaq	_ZSt4cout(%rip), %rax
	movq	%rax, %rdi
	call	_ZNSolsEd@PLT
	movq	_ZSt4endlIcSt11char_traitsIcEERSt13basic_ostreamIT_T0_ES6_@GOTPCREL(%rip), %rdx
	movq	%rdx, %rsi
	movq	%rax, %rdi
	call	_ZNSolsEPFRSoS_E@PLT
	movl	$0, %eax
	movq	-24(%rbp), %rdx
	subq	%fs:40, %rdx
	je	.L12
	jmp	.L14
.L13:
	endbr64
	movq	%rax, %rbx
	leaq	-176(%rbp), %rax
	movq	%rax, %rdi
	call	_ZN5Eigen16CommaInitializerINS_6MatrixIdLi5ELi1ELi0ELi5ELi1EEEED1Ev
	movq	%rbx, %rax
	movq	%rax, %rdi
	call	_Unwind_Resume@PLT
.LEHE2:
.L14:
	call	__stack_chk_fail@PLT
.L12:
	movq	-8(%rbp), %rbx
	leave
	.cfi_def_cfa 7, 8
	ret
	.cfi_endproc
.LFE7355:
	.globl	__gxx_personality_v0
	.section	.gcc_except_table,"a",@progbits
.LLSDA7355:
	.byte	0xff
	.byte	0xff
	.byte	0x1
	.uleb128 .LLSDACSE7355-.LLSDACSB7355
.LLSDACSB7355:
	.uleb128 .LEHB0-.LFB7355
	.uleb128 .LEHE0-.LEHB0
	.uleb128 0
	.uleb128 0
	.uleb128 .LEHB1-.LFB7355
	.uleb128 .LEHE1-.LEHB1
	.uleb128 .L13-.LFB7355
	.uleb128 0
	.uleb128 .LEHB2-.LFB7355
	.uleb128 .LEHE2-.LEHB2
	.uleb128 0
	.uleb128 0
.LLSDACSE7355:
	.text
	.size	main, .-main
	.section	.text._ZN5Eigen8symbolic10SymbolExprINS_8internal17symbolic_last_tagEEC2Ev,"axG",@progbits,_ZN5Eigen8symbolic10SymbolExprINS_8internal17symbolic_last_tagEEC5Ev,comdat
	.align 2
	.weak	_ZN5Eigen8symbolic10SymbolExprINS_8internal17symbolic_last_tagEEC2Ev
	.type	_ZN5Eigen8symbolic10SymbolExprINS_8internal17symbolic_last_tagEEC2Ev, @function
_ZN5Eigen8symbolic10SymbolExprINS_8internal17symbolic_last_tagEEC2Ev:
.LFB7673:
	.cfi_startproc
	endbr64
	pushq	%rbp
	.cfi_def_cfa_offset 16
	.cfi_offset 6, -16
	movq	%rsp, %rbp
	.cfi_def_cfa_register 6
	movq	%rdi, -8(%rbp)
	nop
	popq	%rbp
	.cfi_def_cfa 7, 8
	ret
	.cfi_endproc
.LFE7673:
	.size	_ZN5Eigen8symbolic10SymbolExprINS_8internal17symbolic_last_tagEEC2Ev, .-_ZN5Eigen8symbolic10SymbolExprINS_8internal17symbolic_last_tagEEC2Ev
	.weak	_ZN5Eigen8symbolic10SymbolExprINS_8internal17symbolic_last_tagEEC1Ev
	.set	_ZN5Eigen8symbolic10SymbolExprINS_8internal17symbolic_last_tagEEC1Ev,_ZN5Eigen8symbolic10SymbolExprINS_8internal17symbolic_last_tagEEC2Ev
	.section	.text._ZN5Eigen8internal8FixedIntILi1EEC2Ev,"axG",@progbits,_ZN5Eigen8internal8FixedIntILi1EEC5Ev,comdat
	.align 2
	.weak	_ZN5Eigen8internal8FixedIntILi1EEC2Ev
	.type	_ZN5Eigen8internal8FixedIntILi1EEC2Ev, @function
_ZN5Eigen8internal8FixedIntILi1EEC2Ev:
.LFB7676:
	.cfi_startproc
	endbr64
	pushq	%rbp
	.cfi_def_cfa_offset 16
	.cfi_offset 6, -16
	movq	%rsp, %rbp
	.cfi_def_cfa_register 6
	movq	%rdi, -8(%rbp)
	nop
	popq	%rbp
	.cfi_def_cfa 7, 8
	ret
	.cfi_endproc
.LFE7676:
	.size	_ZN5Eigen8internal8FixedIntILi1EEC2Ev, .-_ZN5Eigen8internal8FixedIntILi1EEC2Ev
	.weak	_ZN5Eigen8internal8FixedIntILi1EEC1Ev
	.set	_ZN5Eigen8internal8FixedIntILi1EEC1Ev,_ZN5Eigen8internal8FixedIntILi1EEC2Ev
	.section	.text._ZNK5Eigen8internal8FixedIntILi1EEclEv,"axG",@progbits,_ZNK5Eigen8internal8FixedIntILi1EEclEv,comdat
	.align 2
	.weak	_ZNK5Eigen8internal8FixedIntILi1EEclEv
	.type	_ZNK5Eigen8internal8FixedIntILi1EEclEv, @function
_ZNK5Eigen8internal8FixedIntILi1EEclEv:
.LFB7678:
	.cfi_startproc
	endbr64
	pushq	%rbp
	.cfi_def_cfa_offset 16
	.cfi_offset 6, -16
	movq	%rsp, %rbp
	.cfi_def_cfa_register 6
	movq	%rdi, -8(%rbp)
	nop
	popq	%rbp
	.cfi_def_cfa 7, 8
	ret
	.cfi_endproc
.LFE7678:
	.size	_ZNK5Eigen8internal8FixedIntILi1EEclEv, .-_ZNK5Eigen8internal8FixedIntILi1EEclEv
	.section	.text._ZNK5Eigen8symbolic8BaseExprINS0_10SymbolExprINS_8internal17symbolic_last_tagEEEEplILi1EEENS0_7AddExprIS5_NS0_9ValueExprINS3_8FixedIntIXT_EEEEEEESB_,"axG",@progbits,_ZNK5Eigen8symbolic8BaseExprINS0_10SymbolExprINS_8internal17symbolic_last_tagEEEEplILi1EEENS0_7AddExprIS5_NS0_9ValueExprINS3_8FixedIntIXT_EEEEEEESB_,comdat
	.align 2
	.weak	_ZNK5Eigen8symbolic8BaseExprINS0_10SymbolExprINS_8internal17symbolic_last_tagEEEEplILi1EEENS0_7AddExprIS5_NS0_9ValueExprINS3_8FixedIntIXT_EEEEEEESB_
	.type	_ZNK5Eigen8symbolic8BaseExprINS0_10SymbolExprINS_8internal17symbolic_last_tagEEEEplILi1EEENS0_7AddExprIS5_NS0_9ValueExprINS3_8FixedIntIXT_EEEEEEESB_, @function
_ZNK5Eigen8symbolic8BaseExprINS0_10SymbolExprINS_8internal17symbolic_last_tagEEEEplILi1EEENS0_7AddExprIS5_NS0_9ValueExprINS3_8FixedIntIXT_EEEEEEESB_:
.LFB7679:
	.cfi_startproc
	endbr64
	pushq	%rbp
	.cfi_def_cfa_offset 16
	.cfi_offset 6, -16
	movq	%rsp, %rbp
	.cfi_def_cfa_register 6
	pushq	%rbx
	subq	$40, %rsp
	.cfi_offset 3, -24
	movq	%rdi, -40(%rbp)
	movq	%fs:40, %rax
	movq	%rax, -24(%rbp)
	xorl	%eax, %eax
	leaq	-27(%rbp), %rax
	movq	%rax, %rdi
	call	_ZN5Eigen8symbolic9ValueExprINS_8internal8FixedIntILi1EEEEC1Ev
	movq	-40(%rbp), %rax
	movq	%rax, %rdi
	call	_ZNK5Eigen8symbolic8BaseExprINS0_10SymbolExprINS_8internal17symbolic_last_tagEEEE7derivedEv
	movq	%rax, %rcx
	leaq	-27(%rbp), %rdx
	leaq	-26(%rbp), %rax
	movq	%rcx, %rsi
	movq	%rax, %rdi
	call	_ZN5Eigen8symbolic7AddExprINS0_10SymbolExprINS_8internal17symbolic_last_tagEEENS0_9ValueExprINS3_8FixedIntILi1EEEEEEC1ERKS5_RKS9_
	nop
	movq	-24(%rbp), %rax
	subq	%fs:40, %rax
	je	.L21
	call	__stack_chk_fail@PLT
.L21:
	movl	%ebx, %eax
	movq	-8(%rbp), %rbx
	leave
	.cfi_def_cfa 7, 8
	ret
	.cfi_endproc
.LFE7679:
	.size	_ZNK5Eigen8symbolic8BaseExprINS0_10SymbolExprINS_8internal17symbolic_last_tagEEEEplILi1EEENS0_7AddExprIS5_NS0_9ValueExprINS3_8FixedIntIXT_EEEEEEESB_, .-_ZNK5Eigen8symbolic8BaseExprINS0_10SymbolExprINS_8internal17symbolic_last_tagEEEEplILi1EEENS0_7AddExprIS5_NS0_9ValueExprINS3_8FixedIntIXT_EEEEEEESB_
	.section	.text._ZN5Eigen6MatrixIdLi4ELi1ELi0ELi4ELi1EEC2ERKdS3_S3_S3_,"axG",@progbits,_ZN5Eigen6MatrixIdLi4ELi1ELi0ELi4ELi1EEC5ERKdS3_S3_S3_,comdat
	.align 2
	.weak	_ZN5Eigen6MatrixIdLi4ELi1ELi0ELi4ELi1EEC2ERKdS3_S3_S3_
	.type	_ZN5Eigen6MatrixIdLi4ELi1ELi0ELi4ELi1EEC2ERKdS3_S3_S3_, @function
_ZN5Eigen6MatrixIdLi4ELi1ELi0ELi4ELi1EEC2ERKdS3_S3_S3_:
.LFB7746:
	.cfi_startproc
	endbr64
	pushq	%rbp
	.cfi_def_cfa_offset 16
	.cfi_offset 6, -16
	movq	%rsp, %rbp
	.cfi_def_cfa_register 6
	subq	$48, %rsp
	movq	%rdi, -8(%rbp)
	movq	%rsi, -16(%rbp)
	movq	%rdx, -24(%rbp)
	movq	%rcx, -32(%rbp)
	movq	%r8, -40(%rbp)
	movq	-8(%rbp), %rax
	movq	%rax, %rdi
	call	_ZN5Eigen15PlainObjectBaseINS_6MatrixIdLi4ELi1ELi0ELi4ELi1EEEEC2Ev
	call	_ZN5Eigen15PlainObjectBaseINS_6MatrixIdLi4ELi1ELi0ELi4ELi1EEEE22_check_template_paramsEv
	movq	-8(%rbp), %rax
	movq	%rax, %rdi
	call	_ZN5Eigen12DenseStorageIdLi4ELi4ELi1ELi0EE4dataEv
	movq	-16(%rbp), %rdx
	movsd	(%rdx), %xmm0
	movsd	%xmm0, (%rax)
	movq	-8(%rbp), %rax
	movq	%rax, %rdi
	call	_ZN5Eigen12DenseStorageIdLi4ELi4ELi1ELi0EE4dataEv
	leaq	8(%rax), %rdx
	movq	-24(%rbp), %rax
	movsd	(%rax), %xmm0
	movsd	%xmm0, (%rdx)
	movq	-8(%rbp), %rax
	movq	%rax, %rdi
	call	_ZN5Eigen12DenseStorageIdLi4ELi4ELi1ELi0EE4dataEv
	leaq	16(%rax), %rdx
	movq	-32(%rbp), %rax
	movsd	(%rax), %xmm0
	movsd	%xmm0, (%rdx)
	movq	-8(%rbp), %rax
	movq	%rax, %rdi
	call	_ZN5Eigen12DenseStorageIdLi4ELi4ELi1ELi0EE4dataEv
	leaq	24(%rax), %rdx
	movq	-40(%rbp), %rax
	movsd	(%rax), %xmm0
	movsd	%xmm0, (%rdx)
	nop
	leave
	.cfi_def_cfa 7, 8
	ret
	.cfi_endproc
.LFE7746:
	.size	_ZN5Eigen6MatrixIdLi4ELi1ELi0ELi4ELi1EEC2ERKdS3_S3_S3_, .-_ZN5Eigen6MatrixIdLi4ELi1ELi0ELi4ELi1EEC2ERKdS3_S3_S3_
	.weak	_ZN5Eigen6MatrixIdLi4ELi1ELi0ELi4ELi1EEC1ERKdS3_S3_S3_
	.set	_ZN5Eigen6MatrixIdLi4ELi1ELi0ELi4ELi1EEC1ERKdS3_S3_S3_,_ZN5Eigen6MatrixIdLi4ELi1ELi0ELi4ELi1EEC2ERKdS3_S3_S3_
	.section	.rodata
	.align 8
.LC10:
	.string	"Eigen::DenseCoeffsBase<Derived, 1>::Scalar& Eigen::DenseCoeffsBase<Derived, 1>::operator[](Eigen::Index) [with Derived = Eigen::Matrix<double, 5, 1>; Eigen::DenseCoeffsBase<Derived, 1>::Scalar = double; Eigen::Index = long int]"
	.align 8
.LC11:
	.string	"/usr/include/eigen3/Eigen/src/Core/DenseCoeffsBase.h"
.LC12:
	.string	"index >= 0 && index < size()"
	.section	.text._ZN5Eigen15DenseCoeffsBaseINS_6MatrixIdLi5ELi1ELi0ELi5ELi1EEELi1EEixEl,"axG",@progbits,_ZN5Eigen15DenseCoeffsBaseINS_6MatrixIdLi5ELi1ELi0ELi5ELi1EEELi1EEixEl,comdat
	.align 2
	.weak	_ZN5Eigen15DenseCoeffsBaseINS_6MatrixIdLi5ELi1ELi0ELi5ELi1EEELi1EEixEl
	.type	_ZN5Eigen15DenseCoeffsBaseINS_6MatrixIdLi5ELi1ELi0ELi5ELi1EEELi1EEixEl, @function
_ZN5Eigen15DenseCoeffsBaseINS_6MatrixIdLi5ELi1ELi0ELi5ELi1EEELi1EEixEl:
.LFB7748:
	.cfi_startproc
	endbr64
	pushq	%rbp
	.cfi_def_cfa_offset 16
	.cfi_offset 6, -16
	movq	%rsp, %rbp
	.cfi_def_cfa_register 6
	subq	$16, %rsp
	movq	%rdi, -8(%rbp)
	movq	%rsi, -16(%rbp)
	cmpq	$0, -16(%rbp)
	js	.L24
	movq	-8(%rbp), %rax
	movq	%rax, %rdi
	call	_ZNK5Eigen9EigenBaseINS_6MatrixIdLi5ELi1ELi0ELi5ELi1EEEE4sizeEv
	cmpq	%rax, -16(%rbp)
	jl	.L27
.L24:
	leaq	.LC10(%rip), %rax
	movq	%rax, %rcx
	movl	$410, %edx
	leaq	.LC11(%rip), %rax
	movq	%rax, %rsi
	leaq	.LC12(%rip), %rax
	movq	%rax, %rdi
	call	__assert_fail@PLT
.L27:
	movq	-16(%rbp), %rdx
	movq	-8(%rbp), %rax
	movq	%rdx, %rsi
	movq	%rax, %rdi
	call	_ZN5Eigen15DenseCoeffsBaseINS_6MatrixIdLi5ELi1ELi0ELi5ELi1EEELi1EE8coeffRefEl
	leave
	.cfi_def_cfa 7, 8
	ret
	.cfi_endproc
.LFE7748:
	.size	_ZN5Eigen15DenseCoeffsBaseINS_6MatrixIdLi5ELi1ELi0ELi5ELi1EEELi1EEixEl, .-_ZN5Eigen15DenseCoeffsBaseINS_6MatrixIdLi5ELi1ELi0ELi5ELi1EEELi1EEixEl
	.section	.rodata
	.align 8
.LC13:
	.string	"Eigen::DenseCoeffsBase<Derived, 1>::Scalar& Eigen::DenseCoeffsBase<Derived, 1>::operator[](Eigen::Index) [with Derived = Eigen::Matrix<double, 4, 1>; Eigen::DenseCoeffsBase<Derived, 1>::Scalar = double; Eigen::Index = long int]"
	.section	.text._ZN5Eigen15DenseCoeffsBaseINS_6MatrixIdLi4ELi1ELi0ELi4ELi1EEELi1EEixEl,"axG",@progbits,_ZN5Eigen15DenseCoeffsBaseINS_6MatrixIdLi4ELi1ELi0ELi4ELi1EEELi1EEixEl,comdat
	.align 2
	.weak	_ZN5Eigen15DenseCoeffsBaseINS_6MatrixIdLi4ELi1ELi0ELi4ELi1EEELi1EEixEl
	.type	_ZN5Eigen15DenseCoeffsBaseINS_6MatrixIdLi4ELi1ELi0ELi4ELi1EEELi1EEixEl, @function
_ZN5Eigen15DenseCoeffsBaseINS_6MatrixIdLi4ELi1ELi0ELi4ELi1EEELi1EEixEl:
.LFB7749:
	.cfi_startproc
	endbr64
	pushq	%rbp
	.cfi_def_cfa_offset 16
	.cfi_offset 6, -16
	movq	%rsp, %rbp
	.cfi_def_cfa_register 6
	subq	$16, %rsp
	movq	%rdi, -8(%rbp)
	movq	%rsi, -16(%rbp)
	cmpq	$0, -16(%rbp)
	js	.L29
	movq	-8(%rbp), %rax
	movq	%rax, %rdi
	call	_ZNK5Eigen9EigenBaseINS_6MatrixIdLi4ELi1ELi0ELi4ELi1EEEE4sizeEv
	cmpq	%rax, -16(%rbp)
	jl	.L32
.L29:
	leaq	.LC13(%rip), %rax
	movq	%rax, %rcx
	movl	$410, %edx
	leaq	.LC11(%rip), %rax
	movq	%rax, %rsi
	leaq	.LC12(%rip), %rax
	movq	%rax, %rdi
	call	__assert_fail@PLT
.L32:
	movq	-16(%rbp), %rdx
	movq	-8(%rbp), %rax
	movq	%rdx, %rsi
	movq	%rax, %rdi
	call	_ZN5Eigen15DenseCoeffsBaseINS_6MatrixIdLi4ELi1ELi0ELi4ELi1EEELi1EE8coeffRefEl
	leave
	.cfi_def_cfa 7, 8
	ret
	.cfi_endproc
.LFE7749:
	.size	_ZN5Eigen15DenseCoeffsBaseINS_6MatrixIdLi4ELi1ELi0ELi4ELi1EEELi1EEixEl, .-_ZN5Eigen15DenseCoeffsBaseINS_6MatrixIdLi4ELi1ELi0ELi4ELi1EEELi1EEixEl
	.section	.text._ZSt3minIdERKT_S2_S2_,"axG",@progbits,_ZSt3minIdERKT_S2_S2_,comdat
	.weak	_ZSt3minIdERKT_S2_S2_
	.type	_ZSt3minIdERKT_S2_S2_, @function
_ZSt3minIdERKT_S2_S2_:
.LFB7750:
	.cfi_startproc
	endbr64
	pushq	%rbp
	.cfi_def_cfa_offset 16
	.cfi_offset 6, -16
	movq	%rsp, %rbp
	.cfi_def_cfa_register 6
	movq	%rdi, -8(%rbp)
	movq	%rsi, -16(%rbp)
	movq	-16(%rbp), %rax
	movsd	(%rax), %xmm1
	movq	-8(%rbp), %rax
	movsd	(%rax), %xmm0
	comisd	%xmm1, %xmm0
	jbe	.L38
	movq	-16(%rbp), %rax
	jmp	.L36
.L38:
	movq	-8(%rbp), %rax
.L36:
	popq	%rbp
	.cfi_def_cfa 7, 8
	ret
	.cfi_endproc
.LFE7750:
	.size	_ZSt3minIdERKT_S2_S2_, .-_ZSt3minIdERKT_S2_S2_
	.section	.text._ZSt3maxIdERKT_S2_S2_,"axG",@progbits,_ZSt3maxIdERKT_S2_S2_,comdat
	.weak	_ZSt3maxIdERKT_S2_S2_
	.type	_ZSt3maxIdERKT_S2_S2_, @function
_ZSt3maxIdERKT_S2_S2_:
.LFB7751:
	.cfi_startproc
	endbr64
	pushq	%rbp
	.cfi_def_cfa_offset 16
	.cfi_offset 6, -16
	movq	%rsp, %rbp
	.cfi_def_cfa_register 6
	movq	%rdi, -8(%rbp)
	movq	%rsi, -16(%rbp)
	movq	-8(%rbp), %rax
	movsd	(%rax), %xmm1
	movq	-16(%rbp), %rax
	movsd	(%rax), %xmm0
	comisd	%xmm1, %xmm0
	jbe	.L44
	movq	-16(%rbp), %rax
	jmp	.L42
.L44:
	movq	-8(%rbp), %rax
.L42:
	popq	%rbp
	.cfi_def_cfa 7, 8
	ret
	.cfi_endproc
.LFE7751:
	.size	_ZSt3maxIdERKT_S2_S2_, .-_ZSt3maxIdERKT_S2_S2_
	.section	.text._ZN5Eigen6MatrixIdLi5ELi1ELi0ELi5ELi1EEC2Ev,"axG",@progbits,_ZN5Eigen6MatrixIdLi5ELi1ELi0ELi5ELi1EEC5Ev,comdat
	.align 2
	.weak	_ZN5Eigen6MatrixIdLi5ELi1ELi0ELi5ELi1EEC2Ev
	.type	_ZN5Eigen6MatrixIdLi5ELi1ELi0ELi5ELi1EEC2Ev, @function
_ZN5Eigen6MatrixIdLi5ELi1ELi0ELi5ELi1EEC2Ev:
.LFB7759:
	.cfi_startproc
	endbr64
	pushq	%rbp
	.cfi_def_cfa_offset 16
	.cfi_offset 6, -16
	movq	%rsp, %rbp
	.cfi_def_cfa_register 6
	subq	$16, %rsp
	movq	%rdi, -8(%rbp)
	movq	-8(%rbp), %rax
	movq	%rax, %rdi
	call	_ZN5Eigen15PlainObjectBaseINS_6MatrixIdLi5ELi1ELi0ELi5ELi1EEEEC2Ev
	call	_ZN5Eigen15PlainObjectBaseINS_6MatrixIdLi5ELi1ELi0ELi5ELi1EEEE22_check_template_paramsEv
	nop
	leave
	.cfi_def_cfa 7, 8
	ret
	.cfi_endproc
.LFE7759:
	.size	_ZN5Eigen6MatrixIdLi5ELi1ELi0ELi5ELi1EEC2Ev, .-_ZN5Eigen6MatrixIdLi5ELi1ELi0ELi5ELi1EEC2Ev
	.weak	_ZN5Eigen6MatrixIdLi5ELi1ELi0ELi5ELi1EEC1Ev
	.set	_ZN5Eigen6MatrixIdLi5ELi1ELi0ELi5ELi1EEC1Ev,_ZN5Eigen6MatrixIdLi5ELi1ELi0ELi5ELi1EEC2Ev
	.section	.text._ZN5Eigen9DenseBaseINS_6MatrixIdLi5ELi1ELi0ELi5ELi1EEEElsERKd,"axG",@progbits,_ZN5Eigen9DenseBaseINS_6MatrixIdLi5ELi1ELi0ELi5ELi1EEEElsERKd,comdat
	.align 2
	.weak	_ZN5Eigen9DenseBaseINS_6MatrixIdLi5ELi1ELi0ELi5ELi1EEEElsERKd
	.type	_ZN5Eigen9DenseBaseINS_6MatrixIdLi5ELi1ELi0ELi5ELi1EEEElsERKd, @function
_ZN5Eigen9DenseBaseINS_6MatrixIdLi5ELi1ELi0ELi5ELi1EEEElsERKd:
.LFB7761:
	.cfi_startproc
	endbr64
	pushq	%rbp
	.cfi_def_cfa_offset 16
	.cfi_offset 6, -16
	movq	%rsp, %rbp
	.cfi_def_cfa_register 6
	subq	$32, %rsp
	movq	%rdi, -8(%rbp)
	movq	%rsi, -16(%rbp)
	movq	%rdx, -24(%rbp)
	movq	-24(%rbp), %rdx
	movq	-16(%rbp), %rcx
	movq	-8(%rbp), %rax
	movq	%rcx, %rsi
	movq	%rax, %rdi
	call	_ZN5Eigen16CommaInitializerINS_6MatrixIdLi5ELi1ELi0ELi5ELi1EEEEC1ERS2_RKd
	movq	-8(%rbp), %rax
	leave
	.cfi_def_cfa 7, 8
	ret
	.cfi_endproc
.LFE7761:
	.size	_ZN5Eigen9DenseBaseINS_6MatrixIdLi5ELi1ELi0ELi5ELi1EEEElsERKd, .-_ZN5Eigen9DenseBaseINS_6MatrixIdLi5ELi1ELi0ELi5ELi1EEEElsERKd
	.section	.text._ZN5Eigen16CommaInitializerINS_6MatrixIdLi5ELi1ELi0ELi5ELi1EEEED2Ev,"axG",@progbits,_ZN5Eigen16CommaInitializerINS_6MatrixIdLi5ELi1ELi0ELi5ELi1EEEED5Ev,comdat
	.align 2
	.weak	_ZN5Eigen16CommaInitializerINS_6MatrixIdLi5ELi1ELi0ELi5ELi1EEEED2Ev
	.type	_ZN5Eigen16CommaInitializerINS_6MatrixIdLi5ELi1ELi0ELi5ELi1EEEED2Ev, @function
_ZN5Eigen16CommaInitializerINS_6MatrixIdLi5ELi1ELi0ELi5ELi1EEEED2Ev:
.LFB7763:
	.cfi_startproc
	endbr64
	pushq	%rbp
	.cfi_def_cfa_offset 16
	.cfi_offset 6, -16
	movq	%rsp, %rbp
	.cfi_def_cfa_register 6
	subq	$16, %rsp
	movq	%rdi, -8(%rbp)
	movq	-8(%rbp), %rax
	movq	%rax, %rdi
	call	_ZN5Eigen16CommaInitializerINS_6MatrixIdLi5ELi1ELi0ELi5ELi1EEEE8finishedEv
	nop
	leave
	.cfi_def_cfa 7, 8
	ret
	.cfi_endproc
.LFE7763:
	.size	_ZN5Eigen16CommaInitializerINS_6MatrixIdLi5ELi1ELi0ELi5ELi1EEEED2Ev, .-_ZN5Eigen16CommaInitializerINS_6MatrixIdLi5ELi1ELi0ELi5ELi1EEEED2Ev
	.weak	_ZN5Eigen16CommaInitializerINS_6MatrixIdLi5ELi1ELi0ELi5ELi1EEEED1Ev
	.set	_ZN5Eigen16CommaInitializerINS_6MatrixIdLi5ELi1ELi0ELi5ELi1EEEED1Ev,_ZN5Eigen16CommaInitializerINS_6MatrixIdLi5ELi1ELi0ELi5ELi1EEEED2Ev
	.section	.rodata
	.align 8
.LC14:
	.string	"Eigen::CommaInitializer<MatrixType>& Eigen::CommaInitializer<MatrixType>::operator,(const Scalar&) [with XprType = Eigen::Matrix<double, 5, 1>; Eigen::CommaInitializer<MatrixType>::Scalar = double]"
	.align 8
.LC15:
	.string	"/usr/include/eigen3/Eigen/src/Core/CommaInitializer.h"
	.align 8
.LC16:
	.string	"m_row<m_xpr.rows() && \"Too many rows passed to comma initializer (operator<<)\""
	.align 8
.LC17:
	.string	"m_col<m_xpr.cols() && \"Too many coefficients passed to comma initializer (operator<<)\""
.LC18:
	.string	"m_currentBlockRows==1"
	.section	.text._ZN5Eigen16CommaInitializerINS_6MatrixIdLi5ELi1ELi0ELi5ELi1EEEEcmERKd,"axG",@progbits,_ZN5Eigen16CommaInitializerINS_6MatrixIdLi5ELi1ELi0ELi5ELi1EEEEcmERKd,comdat
	.align 2
	.weak	_ZN5Eigen16CommaInitializerINS_6MatrixIdLi5ELi1ELi0ELi5ELi1EEEEcmERKd
	.type	_ZN5Eigen16CommaInitializerINS_6MatrixIdLi5ELi1ELi0ELi5ELi1EEEEcmERKd, @function
_ZN5Eigen16CommaInitializerINS_6MatrixIdLi5ELi1ELi0ELi5ELi1EEEEcmERKd:
.LFB7765:
	.cfi_startproc
	endbr64
	pushq	%rbp
	.cfi_def_cfa_offset 16
	.cfi_offset 6, -16
	movq	%rsp, %rbp
	.cfi_def_cfa_register 6
	pushq	%rbx
	subq	$24, %rsp
	.cfi_offset 3, -24
	movq	%rdi, -24(%rbp)
	movq	%rsi, -32(%rbp)
	movq	-24(%rbp), %rax
	movq	16(%rax), %rbx
	movq	-24(%rbp), %rax
	movq	(%rax), %rax
	movq	%rax, %rdi
	call	_ZNK5Eigen15PlainObjectBaseINS_6MatrixIdLi5ELi1ELi0ELi5ELi1EEEE4colsEv
	cmpq	%rax, %rbx
	sete	%al
	testb	%al, %al
	je	.L50
	movq	-24(%rbp), %rax
	movq	8(%rax), %rdx
	movq	-24(%rbp), %rax
	movq	24(%rax), %rax
	addq	%rax, %rdx
	movq	-24(%rbp), %rax
	movq	%rdx, 8(%rax)
	movq	-24(%rbp), %rax
	movq	$0, 16(%rax)
	movq	-24(%rbp), %rax
	movq	$1, 24(%rax)
	movq	-24(%rbp), %rax
	movq	8(%rax), %rbx
	movq	-24(%rbp), %rax
	movq	(%rax), %rax
	movq	%rax, %rdi
	call	_ZNK5Eigen15PlainObjectBaseINS_6MatrixIdLi5ELi1ELi0ELi5ELi1EEEE4rowsEv
	cmpq	%rax, %rbx
	jl	.L58
	leaq	.LC14(%rip), %rax
	movq	%rax, %rcx
	movl	$72, %edx
	leaq	.LC15(%rip), %rax
	movq	%rax, %rsi
	leaq	.LC16(%rip), %rax
	movq	%rax, %rdi
	call	__assert_fail@PLT
.L58:
	nop
.L50:
	movq	-24(%rbp), %rax
	movq	16(%rax), %rbx
	movq	-24(%rbp), %rax
	movq	(%rax), %rax
	movq	%rax, %rdi
	call	_ZNK5Eigen15PlainObjectBaseINS_6MatrixIdLi5ELi1ELi0ELi5ELi1EEEE4colsEv
	cmpq	%rax, %rbx
	jl	.L59
	leaq	.LC14(%rip), %rax
	movq	%rax, %rcx
	movl	$75, %edx
	leaq	.LC15(%rip), %rax
	movq	%rax, %rsi
	leaq	.LC17(%rip), %rax
	movq	%rax, %rdi
	call	__assert_fail@PLT
.L59:
	nop
	movq	-24(%rbp), %rax
	movq	24(%rax), %rax
	cmpq	$1, %rax
	je	.L55
	leaq	.LC14(%rip), %rax
	movq	%rax, %rcx
	movl	$77, %edx
	leaq	.LC15(%rip), %rax
	movq	%rax, %rsi
	leaq	.LC18(%rip), %rax
	movq	%rax, %rdi
	call	__assert_fail@PLT
.L55:
	movq	-24(%rbp), %rax
	movq	(%rax), %rax
	movq	%rax, %rdi
	movq	-24(%rbp), %rax
	movq	16(%rax), %rax
	leaq	1(%rax), %rcx
	movq	-24(%rbp), %rdx
	movq	%rcx, 16(%rdx)
	movq	-24(%rbp), %rdx
	movq	8(%rdx), %rcx
	movq	%rax, %rdx
	movq	%rcx, %rsi
	call	_ZN5Eigen15PlainObjectBaseINS_6MatrixIdLi5ELi1ELi0ELi5ELi1EEEE8coeffRefEll
	movq	-32(%rbp), %rdx
	movsd	(%rdx), %xmm0
	movsd	%xmm0, (%rax)
	movq	-24(%rbp), %rax
	movq	-8(%rbp), %rbx
	leave
	.cfi_def_cfa 7, 8
	ret
	.cfi_endproc
.LFE7765:
	.size	_ZN5Eigen16CommaInitializerINS_6MatrixIdLi5ELi1ELi0ELi5ELi1EEEEcmERKd, .-_ZN5Eigen16CommaInitializerINS_6MatrixIdLi5ELi1ELi0ELi5ELi1EEEEcmERKd
	.section	.text._ZN5Eigen6MatrixIdLi5ELi1ELi0ELi5ELi1EEC2ERKS1_,"axG",@progbits,_ZN5Eigen6MatrixIdLi5ELi1ELi0ELi5ELi1EEC5ERKS1_,comdat
	.align 2
	.weak	_ZN5Eigen6MatrixIdLi5ELi1ELi0ELi5ELi1EEC2ERKS1_
	.type	_ZN5Eigen6MatrixIdLi5ELi1ELi0ELi5ELi1EEC2ERKS1_, @function
_ZN5Eigen6MatrixIdLi5ELi1ELi0ELi5ELi1EEC2ERKS1_:
.LFB7767:
	.cfi_startproc
	endbr64
	pushq	%rbp
	.cfi_def_cfa_offset 16
	.cfi_offset 6, -16
	movq	%rsp, %rbp
	.cfi_def_cfa_register 6
	subq	$16, %rsp
	movq	%rdi, -8(%rbp)
	movq	%rsi, -16(%rbp)
	movq	-8(%rbp), %rax
	movq	-16(%rbp), %rdx
	movq	%rdx, %rsi
	movq	%rax, %rdi
	call	_ZN5Eigen15PlainObjectBaseINS_6MatrixIdLi5ELi1ELi0ELi5ELi1EEEEC2ERKS3_
	nop
	leave
	.cfi_def_cfa 7, 8
	ret
	.cfi_endproc
.LFE7767:
	.size	_ZN5Eigen6MatrixIdLi5ELi1ELi0ELi5ELi1EEC2ERKS1_, .-_ZN5Eigen6MatrixIdLi5ELi1ELi0ELi5ELi1EEC2ERKS1_
	.weak	_ZN5Eigen6MatrixIdLi5ELi1ELi0ELi5ELi1EEC1ERKS1_
	.set	_ZN5Eigen6MatrixIdLi5ELi1ELi0ELi5ELi1EEC1ERKS1_,_ZN5Eigen6MatrixIdLi5ELi1ELi0ELi5ELi1EEC2ERKS1_
	.section	.text._ZNK5Eigen8symbolic8BaseExprINS0_10SymbolExprINS_8internal17symbolic_last_tagEEEE7derivedEv,"axG",@progbits,_ZNK5Eigen8symbolic8BaseExprINS0_10SymbolExprINS_8internal17symbolic_last_tagEEEE7derivedEv,comdat
	.align 2
	.weak	_ZNK5Eigen8symbolic8BaseExprINS0_10SymbolExprINS_8internal17symbolic_last_tagEEEE7derivedEv
	.type	_ZNK5Eigen8symbolic8BaseExprINS0_10SymbolExprINS_8internal17symbolic_last_tagEEEE7derivedEv, @function
_ZNK5Eigen8symbolic8BaseExprINS0_10SymbolExprINS_8internal17symbolic_last_tagEEEE7derivedEv:
.LFB7910:
	.cfi_startproc
	endbr64
	pushq	%rbp
	.cfi_def_cfa_offset 16
	.cfi_offset 6, -16
	movq	%rsp, %rbp
	.cfi_def_cfa_register 6
	movq	%rdi, -8(%rbp)
	movq	-8(%rbp), %rax
	popq	%rbp
	.cfi_def_cfa 7, 8
	ret
	.cfi_endproc
.LFE7910:
	.size	_ZNK5Eigen8symbolic8BaseExprINS0_10SymbolExprINS_8internal17symbolic_last_tagEEEE7derivedEv, .-_ZNK5Eigen8symbolic8BaseExprINS0_10SymbolExprINS_8internal17symbolic_last_tagEEEE7derivedEv
	.section	.text._ZN5Eigen8symbolic9ValueExprINS_8internal8FixedIntILi1EEEEC2Ev,"axG",@progbits,_ZN5Eigen8symbolic9ValueExprINS_8internal8FixedIntILi1EEEEC5Ev,comdat
	.align 2
	.weak	_ZN5Eigen8symbolic9ValueExprINS_8internal8FixedIntILi1EEEEC2Ev
	.type	_ZN5Eigen8symbolic9ValueExprINS_8internal8FixedIntILi1EEEEC2Ev, @function
_ZN5Eigen8symbolic9ValueExprINS_8internal8FixedIntILi1EEEEC2Ev:
.LFB7912:
	.cfi_startproc
	endbr64
	pushq	%rbp
	.cfi_def_cfa_offset 16
	.cfi_offset 6, -16
	movq	%rsp, %rbp
	.cfi_def_cfa_register 6
	movq	%rdi, -8(%rbp)
	nop
	popq	%rbp
	.cfi_def_cfa 7, 8
	ret
	.cfi_endproc
.LFE7912:
	.size	_ZN5Eigen8symbolic9ValueExprINS_8internal8FixedIntILi1EEEEC2Ev, .-_ZN5Eigen8symbolic9ValueExprINS_8internal8FixedIntILi1EEEEC2Ev
	.weak	_ZN5Eigen8symbolic9ValueExprINS_8internal8FixedIntILi1EEEEC1Ev
	.set	_ZN5Eigen8symbolic9ValueExprINS_8internal8FixedIntILi1EEEEC1Ev,_ZN5Eigen8symbolic9ValueExprINS_8internal8FixedIntILi1EEEEC2Ev
	.section	.text._ZN5Eigen8symbolic7AddExprINS0_10SymbolExprINS_8internal17symbolic_last_tagEEENS0_9ValueExprINS3_8FixedIntILi1EEEEEEC2ERKS5_RKS9_,"axG",@progbits,_ZN5Eigen8symbolic7AddExprINS0_10SymbolExprINS_8internal17symbolic_last_tagEEENS0_9ValueExprINS3_8FixedIntILi1EEEEEEC5ERKS5_RKS9_,comdat
	.align 2
	.weak	_ZN5Eigen8symbolic7AddExprINS0_10SymbolExprINS_8internal17symbolic_last_tagEEENS0_9ValueExprINS3_8FixedIntILi1EEEEEEC2ERKS5_RKS9_
	.type	_ZN5Eigen8symbolic7AddExprINS0_10SymbolExprINS_8internal17symbolic_last_tagEEENS0_9ValueExprINS3_8FixedIntILi1EEEEEEC2ERKS5_RKS9_, @function
_ZN5Eigen8symbolic7AddExprINS0_10SymbolExprINS_8internal17symbolic_last_tagEEENS0_9ValueExprINS3_8FixedIntILi1EEEEEEC2ERKS5_RKS9_:
.LFB7915:
	.cfi_startproc
	endbr64
	pushq	%rbp
	.cfi_def_cfa_offset 16
	.cfi_offset 6, -16
	movq	%rsp, %rbp
	.cfi_def_cfa_register 6
	movq	%rdi, -8(%rbp)
	movq	%rsi, -16(%rbp)
	movq	%rdx, -24(%rbp)
	nop
	popq	%rbp
	.cfi_def_cfa 7, 8
	ret
	.cfi_endproc
.LFE7915:
	.size	_ZN5Eigen8symbolic7AddExprINS0_10SymbolExprINS_8internal17symbolic_last_tagEEENS0_9ValueExprINS3_8FixedIntILi1EEEEEEC2ERKS5_RKS9_, .-_ZN5Eigen8symbolic7AddExprINS0_10SymbolExprINS_8internal17symbolic_last_tagEEENS0_9ValueExprINS3_8FixedIntILi1EEEEEEC2ERKS5_RKS9_
	.weak	_ZN5Eigen8symbolic7AddExprINS0_10SymbolExprINS_8internal17symbolic_last_tagEEENS0_9ValueExprINS3_8FixedIntILi1EEEEEEC1ERKS5_RKS9_
	.set	_ZN5Eigen8symbolic7AddExprINS0_10SymbolExprINS_8internal17symbolic_last_tagEEENS0_9ValueExprINS3_8FixedIntILi1EEEEEEC1ERKS5_RKS9_,_ZN5Eigen8symbolic7AddExprINS0_10SymbolExprINS_8internal17symbolic_last_tagEEENS0_9ValueExprINS3_8FixedIntILi1EEEEEEC2ERKS5_RKS9_
	.section	.text._ZN5Eigen10MatrixBaseINS_6MatrixIdLi4ELi1ELi0ELi4ELi1EEEEC2Ev,"axG",@progbits,_ZN5Eigen10MatrixBaseINS_6MatrixIdLi4ELi1ELi0ELi4ELi1EEEEC5Ev,comdat
	.align 2
	.weak	_ZN5Eigen10MatrixBaseINS_6MatrixIdLi4ELi1ELi0ELi4ELi1EEEEC2Ev
	.type	_ZN5Eigen10MatrixBaseINS_6MatrixIdLi4ELi1ELi0ELi4ELi1EEEEC2Ev, @function
_ZN5Eigen10MatrixBaseINS_6MatrixIdLi4ELi1ELi0ELi4ELi1EEEEC2Ev:
.LFB7923:
	.cfi_startproc
	endbr64
	pushq	%rbp
	.cfi_def_cfa_offset 16
	.cfi_offset 6, -16
	movq	%rsp, %rbp
	.cfi_def_cfa_register 6
	subq	$16, %rsp
	movq	%rdi, -8(%rbp)
	movq	-8(%rbp), %rax
	movq	%rax, %rdi
	call	_ZN5Eigen9DenseBaseINS_6MatrixIdLi4ELi1ELi0ELi4ELi1EEEEC2Ev
	nop
	leave
	.cfi_def_cfa 7, 8
	ret
	.cfi_endproc
.LFE7923:
	.size	_ZN5Eigen10MatrixBaseINS_6MatrixIdLi4ELi1ELi0ELi4ELi1EEEEC2Ev, .-_ZN5Eigen10MatrixBaseINS_6MatrixIdLi4ELi1ELi0ELi4ELi1EEEEC2Ev
	.weak	_ZN5Eigen10MatrixBaseINS_6MatrixIdLi4ELi1ELi0ELi4ELi1EEEEC1Ev
	.set	_ZN5Eigen10MatrixBaseINS_6MatrixIdLi4ELi1ELi0ELi4ELi1EEEEC1Ev,_ZN5Eigen10MatrixBaseINS_6MatrixIdLi4ELi1ELi0ELi4ELi1EEEEC2Ev
	.section	.text._ZN5Eigen15PlainObjectBaseINS_6MatrixIdLi4ELi1ELi0ELi4ELi1EEEEC2Ev,"axG",@progbits,_ZN5Eigen15PlainObjectBaseINS_6MatrixIdLi4ELi1ELi0ELi4ELi1EEEEC5Ev,comdat
	.align 2
	.weak	_ZN5Eigen15PlainObjectBaseINS_6MatrixIdLi4ELi1ELi0ELi4ELi1EEEEC2Ev
	.type	_ZN5Eigen15PlainObjectBaseINS_6MatrixIdLi4ELi1ELi0ELi4ELi1EEEEC2Ev, @function
_ZN5Eigen15PlainObjectBaseINS_6MatrixIdLi4ELi1ELi0ELi4ELi1EEEEC2Ev:
.LFB7925:
	.cfi_startproc
	endbr64
	pushq	%rbp
	.cfi_def_cfa_offset 16
	.cfi_offset 6, -16
	movq	%rsp, %rbp
	.cfi_def_cfa_register 6
	subq	$16, %rsp
	movq	%rdi, -8(%rbp)
	movq	-8(%rbp), %rax
	movq	%rax, %rdi
	call	_ZN5Eigen10MatrixBaseINS_6MatrixIdLi4ELi1ELi0ELi4ELi1EEEEC2Ev
	movq	-8(%rbp), %rax
	movq	%rax, %rdi
	call	_ZN5Eigen12DenseStorageIdLi4ELi4ELi1ELi0EEC1Ev
	nop
	leave
	.cfi_def_cfa 7, 8
	ret
	.cfi_endproc
.LFE7925:
	.size	_ZN5Eigen15PlainObjectBaseINS_6MatrixIdLi4ELi1ELi0ELi4ELi1EEEEC2Ev, .-_ZN5Eigen15PlainObjectBaseINS_6MatrixIdLi4ELi1ELi0ELi4ELi1EEEEC2Ev
	.weak	_ZN5Eigen15PlainObjectBaseINS_6MatrixIdLi4ELi1ELi0ELi4ELi1EEEEC1Ev
	.set	_ZN5Eigen15PlainObjectBaseINS_6MatrixIdLi4ELi1ELi0ELi4ELi1EEEEC1Ev,_ZN5Eigen15PlainObjectBaseINS_6MatrixIdLi4ELi1ELi0ELi4ELi1EEEEC2Ev
	.section	.text._ZN5Eigen15PlainObjectBaseINS_6MatrixIdLi4ELi1ELi0ELi4ELi1EEEE22_check_template_paramsEv,"axG",@progbits,_ZN5Eigen15PlainObjectBaseINS_6MatrixIdLi4ELi1ELi0ELi4ELi1EEEE22_check_template_paramsEv,comdat
	.weak	_ZN5Eigen15PlainObjectBaseINS_6MatrixIdLi4ELi1ELi0ELi4ELi1EEEE22_check_template_paramsEv
	.type	_ZN5Eigen15PlainObjectBaseINS_6MatrixIdLi4ELi1ELi0ELi4ELi1EEEE22_check_template_paramsEv, @function
_ZN5Eigen15PlainObjectBaseINS_6MatrixIdLi4ELi1ELi0ELi4ELi1EEEE22_check_template_paramsEv:
.LFB7927:
	.cfi_startproc
	endbr64
	pushq	%rbp
	.cfi_def_cfa_offset 16
	.cfi_offset 6, -16
	movq	%rsp, %rbp
	.cfi_def_cfa_register 6
	nop
	popq	%rbp
	.cfi_def_cfa 7, 8
	ret
	.cfi_endproc
.LFE7927:
	.size	_ZN5Eigen15PlainObjectBaseINS_6MatrixIdLi4ELi1ELi0ELi4ELi1EEEE22_check_template_paramsEv, .-_ZN5Eigen15PlainObjectBaseINS_6MatrixIdLi4ELi1ELi0ELi4ELi1EEEE22_check_template_paramsEv
	.section	.text._ZN5Eigen12DenseStorageIdLi4ELi4ELi1ELi0EE4dataEv,"axG",@progbits,_ZN5Eigen12DenseStorageIdLi4ELi4ELi1ELi0EE4dataEv,comdat
	.align 2
	.weak	_ZN5Eigen12DenseStorageIdLi4ELi4ELi1ELi0EE4dataEv
	.type	_ZN5Eigen12DenseStorageIdLi4ELi4ELi1ELi0EE4dataEv, @function
_ZN5Eigen12DenseStorageIdLi4ELi4ELi1ELi0EE4dataEv:
.LFB7928:
	.cfi_startproc
	endbr64
	pushq	%rbp
	.cfi_def_cfa_offset 16
	.cfi_offset 6, -16
	movq	%rsp, %rbp
	.cfi_def_cfa_register 6
	movq	%rdi, -8(%rbp)
	movq	-8(%rbp), %rax
	popq	%rbp
	.cfi_def_cfa 7, 8
	ret
	.cfi_endproc
.LFE7928:
	.size	_ZN5Eigen12DenseStorageIdLi4ELi4ELi1ELi0EE4dataEv, .-_ZN5Eigen12DenseStorageIdLi4ELi4ELi1ELi0EE4dataEv
	.section	.text._ZNK5Eigen9EigenBaseINS_6MatrixIdLi5ELi1ELi0ELi5ELi1EEEE4rowsEv,"axG",@progbits,_ZNK5Eigen9EigenBaseINS_6MatrixIdLi5ELi1ELi0ELi5ELi1EEEE4rowsEv,comdat
	.align 2
	.weak	_ZNK5Eigen9EigenBaseINS_6MatrixIdLi5ELi1ELi0ELi5ELi1EEEE4rowsEv
	.type	_ZNK5Eigen9EigenBaseINS_6MatrixIdLi5ELi1ELi0ELi5ELi1EEEE4rowsEv, @function
_ZNK5Eigen9EigenBaseINS_6MatrixIdLi5ELi1ELi0ELi5ELi1EEEE4rowsEv:
.LFB7930:
	.cfi_startproc
	endbr64
	pushq	%rbp
	.cfi_def_cfa_offset 16
	.cfi_offset 6, -16
	movq	%rsp, %rbp
	.cfi_def_cfa_register 6
	subq	$16, %rsp
	movq	%rdi, -8(%rbp)
	movq	-8(%rbp), %rax
	movq	%rax, %rdi
	call	_ZNK5Eigen9EigenBaseINS_6MatrixIdLi5ELi1ELi0ELi5ELi1EEEE7derivedEv
	movq	%rax, %rdi
	call	_ZNK5Eigen15PlainObjectBaseINS_6MatrixIdLi5ELi1ELi0ELi5ELi1EEEE4rowsEv
	leave
	.cfi_def_cfa 7, 8
	ret
	.cfi_endproc
.LFE7930:
	.size	_ZNK5Eigen9EigenBaseINS_6MatrixIdLi5ELi1ELi0ELi5ELi1EEEE4rowsEv, .-_ZNK5Eigen9EigenBaseINS_6MatrixIdLi5ELi1ELi0ELi5ELi1EEEE4rowsEv
	.section	.text._ZNK5Eigen9EigenBaseINS_6MatrixIdLi5ELi1ELi0ELi5ELi1EEEE4sizeEv,"axG",@progbits,_ZNK5Eigen9EigenBaseINS_6MatrixIdLi5ELi1ELi0ELi5ELi1EEEE4sizeEv,comdat
	.align 2
	.weak	_ZNK5Eigen9EigenBaseINS_6MatrixIdLi5ELi1ELi0ELi5ELi1EEEE4sizeEv
	.type	_ZNK5Eigen9EigenBaseINS_6MatrixIdLi5ELi1ELi0ELi5ELi1EEEE4sizeEv, @function
_ZNK5Eigen9EigenBaseINS_6MatrixIdLi5ELi1ELi0ELi5ELi1EEEE4sizeEv:
.LFB7929:
	.cfi_startproc
	endbr64
	pushq	%rbp
	.cfi_def_cfa_offset 16
	.cfi_offset 6, -16
	movq	%rsp, %rbp
	.cfi_def_cfa_register 6
	pushq	%rbx
	subq	$24, %rsp
	.cfi_offset 3, -24
	movq	%rdi, -24(%rbp)
	movq	-24(%rbp), %rax
	movq	%rax, %rdi
	call	_ZNK5Eigen9EigenBaseINS_6MatrixIdLi5ELi1ELi0ELi5ELi1EEEE4rowsEv
	movq	%rax, %rbx
	movq	-24(%rbp), %rax
	movq	%rax, %rdi
	call	_ZNK5Eigen9EigenBaseINS_6MatrixIdLi5ELi1ELi0ELi5ELi1EEEE4colsEv
	imulq	%rbx, %rax
	movq	-8(%rbp), %rbx
	leave
	.cfi_def_cfa 7, 8
	ret
	.cfi_endproc
.LFE7929:
	.size	_ZNK5Eigen9EigenBaseINS_6MatrixIdLi5ELi1ELi0ELi5ELi1EEEE4sizeEv, .-_ZNK5Eigen9EigenBaseINS_6MatrixIdLi5ELi1ELi0ELi5ELi1EEEE4sizeEv
	.section	.text._ZN5Eigen8internal9evaluatorINS_15PlainObjectBaseINS_6MatrixIdLi5ELi1ELi0ELi5ELi1EEEEEED2Ev,"axG",@progbits,_ZN5Eigen8internal9evaluatorINS_15PlainObjectBaseINS_6MatrixIdLi5ELi1ELi0ELi5ELi1EEEEEED5Ev,comdat
	.align 2
	.weak	_ZN5Eigen8internal9evaluatorINS_15PlainObjectBaseINS_6MatrixIdLi5ELi1ELi0ELi5ELi1EEEEEED2Ev
	.type	_ZN5Eigen8internal9evaluatorINS_15PlainObjectBaseINS_6MatrixIdLi5ELi1ELi0ELi5ELi1EEEEEED2Ev, @function
_ZN5Eigen8internal9evaluatorINS_15PlainObjectBaseINS_6MatrixIdLi5ELi1ELi0ELi5ELi1EEEEEED2Ev:
.LFB7934:
	.cfi_startproc
	endbr64
	pushq	%rbp
	.cfi_def_cfa_offset 16
	.cfi_offset 6, -16
	movq	%rsp, %rbp
	.cfi_def_cfa_register 6
	subq	$16, %rsp
	movq	%rdi, -8(%rbp)
	movq	-8(%rbp), %rax
	movq	%rax, %rdi
	call	_ZN5Eigen8internal14evaluator_baseINS_6MatrixIdLi5ELi1ELi0ELi5ELi1EEEED2Ev
	nop
	leave
	.cfi_def_cfa 7, 8
	ret
	.cfi_endproc
.LFE7934:
	.size	_ZN5Eigen8internal9evaluatorINS_15PlainObjectBaseINS_6MatrixIdLi5ELi1ELi0ELi5ELi1EEEEEED2Ev, .-_ZN5Eigen8internal9evaluatorINS_15PlainObjectBaseINS_6MatrixIdLi5ELi1ELi0ELi5ELi1EEEEEED2Ev
	.weak	_ZN5Eigen8internal9evaluatorINS_15PlainObjectBaseINS_6MatrixIdLi5ELi1ELi0ELi5ELi1EEEEEED1Ev
	.set	_ZN5Eigen8internal9evaluatorINS_15PlainObjectBaseINS_6MatrixIdLi5ELi1ELi0ELi5ELi1EEEEEED1Ev,_ZN5Eigen8internal9evaluatorINS_15PlainObjectBaseINS_6MatrixIdLi5ELi1ELi0ELi5ELi1EEEEEED2Ev
	.section	.text._ZN5Eigen8internal9evaluatorINS_6MatrixIdLi5ELi1ELi0ELi5ELi1EEEED2Ev,"axG",@progbits,_ZN5Eigen8internal9evaluatorINS_6MatrixIdLi5ELi1ELi0ELi5ELi1EEEED5Ev,comdat
	.align 2
	.weak	_ZN5Eigen8internal9evaluatorINS_6MatrixIdLi5ELi1ELi0ELi5ELi1EEEED2Ev
	.type	_ZN5Eigen8internal9evaluatorINS_6MatrixIdLi5ELi1ELi0ELi5ELi1EEEED2Ev, @function
_ZN5Eigen8internal9evaluatorINS_6MatrixIdLi5ELi1ELi0ELi5ELi1EEEED2Ev:
.LFB7936:
	.cfi_startproc
	endbr64
	pushq	%rbp
	.cfi_def_cfa_offset 16
	.cfi_offset 6, -16
	movq	%rsp, %rbp
	.cfi_def_cfa_register 6
	subq	$16, %rsp
	movq	%rdi, -8(%rbp)
	movq	-8(%rbp), %rax
	movq	%rax, %rdi
	call	_ZN5Eigen8internal9evaluatorINS_15PlainObjectBaseINS_6MatrixIdLi5ELi1ELi0ELi5ELi1EEEEEED2Ev
	nop
	leave
	.cfi_def_cfa 7, 8
	ret
	.cfi_endproc
.LFE7936:
	.size	_ZN5Eigen8internal9evaluatorINS_6MatrixIdLi5ELi1ELi0ELi5ELi1EEEED2Ev, .-_ZN5Eigen8internal9evaluatorINS_6MatrixIdLi5ELi1ELi0ELi5ELi1EEEED2Ev
	.weak	_ZN5Eigen8internal9evaluatorINS_6MatrixIdLi5ELi1ELi0ELi5ELi1EEEED1Ev
	.set	_ZN5Eigen8internal9evaluatorINS_6MatrixIdLi5ELi1ELi0ELi5ELi1EEEED1Ev,_ZN5Eigen8internal9evaluatorINS_6MatrixIdLi5ELi1ELi0ELi5ELi1EEEED2Ev
	.section	.text._ZN5Eigen15DenseCoeffsBaseINS_6MatrixIdLi5ELi1ELi0ELi5ELi1EEELi1EE8coeffRefEl,"axG",@progbits,_ZN5Eigen15DenseCoeffsBaseINS_6MatrixIdLi5ELi1ELi0ELi5ELi1EEELi1EE8coeffRefEl,comdat
	.align 2
	.weak	_ZN5Eigen15DenseCoeffsBaseINS_6MatrixIdLi5ELi1ELi0ELi5ELi1EEELi1EE8coeffRefEl
	.type	_ZN5Eigen15DenseCoeffsBaseINS_6MatrixIdLi5ELi1ELi0ELi5ELi1EEELi1EE8coeffRefEl, @function
_ZN5Eigen15DenseCoeffsBaseINS_6MatrixIdLi5ELi1ELi0ELi5ELi1EEELi1EE8coeffRefEl:
.LFB7931:
	.cfi_startproc
	endbr64
	pushq	%rbp
	.cfi_def_cfa_offset 16
	.cfi_offset 6, -16
	movq	%rsp, %rbp
	.cfi_def_cfa_register 6
	pushq	%rbx
	subq	$40, %rsp
	.cfi_offset 3, -24
	movq	%rdi, -40(%rbp)
	movq	%rsi, -48(%rbp)
	movq	%fs:40, %rax
	movq	%rax, -24(%rbp)
	xorl	%eax, %eax
	movq	-40(%rbp), %rax
	movq	%rax, %rdi
	call	_ZN5Eigen9EigenBaseINS_6MatrixIdLi5ELi1ELi0ELi5ELi1EEEE7derivedEv
	movq	%rax, %rdx
	leaq	-32(%rbp), %rax
	movq	%rdx, %rsi
	movq	%rax, %rdi
	call	_ZN5Eigen8internal9evaluatorINS_6MatrixIdLi5ELi1ELi0ELi5ELi1EEEEC1ERKS3_
	movq	-48(%rbp), %rdx
	leaq	-32(%rbp), %rax
	movq	%rdx, %rsi
	movq	%rax, %rdi
	call	_ZN5Eigen8internal9evaluatorINS_15PlainObjectBaseINS_6MatrixIdLi5ELi1ELi0ELi5ELi1EEEEEE8coeffRefEl
	movq	%rax, %rbx
	nop
	leaq	-32(%rbp), %rax
	movq	%rax, %rdi
	call	_ZN5Eigen8internal9evaluatorINS_6MatrixIdLi5ELi1ELi0ELi5ELi1EEEED1Ev
	movq	%rbx, %rax
	movq	-24(%rbp), %rdx
	subq	%fs:40, %rdx
	je	.L78
	call	__stack_chk_fail@PLT
.L78:
	movq	-8(%rbp), %rbx
	leave
	.cfi_def_cfa 7, 8
	ret
	.cfi_endproc
.LFE7931:
	.size	_ZN5Eigen15DenseCoeffsBaseINS_6MatrixIdLi5ELi1ELi0ELi5ELi1EEELi1EE8coeffRefEl, .-_ZN5Eigen15DenseCoeffsBaseINS_6MatrixIdLi5ELi1ELi0ELi5ELi1EEELi1EE8coeffRefEl
	.section	.text._ZNK5Eigen9EigenBaseINS_6MatrixIdLi4ELi1ELi0ELi4ELi1EEEE4rowsEv,"axG",@progbits,_ZNK5Eigen9EigenBaseINS_6MatrixIdLi4ELi1ELi0ELi4ELi1EEEE4rowsEv,comdat
	.align 2
	.weak	_ZNK5Eigen9EigenBaseINS_6MatrixIdLi4ELi1ELi0ELi4ELi1EEEE4rowsEv
	.type	_ZNK5Eigen9EigenBaseINS_6MatrixIdLi4ELi1ELi0ELi4ELi1EEEE4rowsEv, @function
_ZNK5Eigen9EigenBaseINS_6MatrixIdLi4ELi1ELi0ELi4ELi1EEEE4rowsEv:
.LFB7939:
	.cfi_startproc
	endbr64
	pushq	%rbp
	.cfi_def_cfa_offset 16
	.cfi_offset 6, -16
	movq	%rsp, %rbp
	.cfi_def_cfa_register 6
	subq	$16, %rsp
	movq	%rdi, -8(%rbp)
	movq	-8(%rbp), %rax
	movq	%rax, %rdi
	call	_ZNK5Eigen9EigenBaseINS_6MatrixIdLi4ELi1ELi0ELi4ELi1EEEE7derivedEv
	movq	%rax, %rdi
	call	_ZNK5Eigen15PlainObjectBaseINS_6MatrixIdLi4ELi1ELi0ELi4ELi1EEEE4rowsEv
	leave
	.cfi_def_cfa 7, 8
	ret
	.cfi_endproc
.LFE7939:
	.size	_ZNK5Eigen9EigenBaseINS_6MatrixIdLi4ELi1ELi0ELi4ELi1EEEE4rowsEv, .-_ZNK5Eigen9EigenBaseINS_6MatrixIdLi4ELi1ELi0ELi4ELi1EEEE4rowsEv
	.section	.text._ZNK5Eigen9EigenBaseINS_6MatrixIdLi4ELi1ELi0ELi4ELi1EEEE4sizeEv,"axG",@progbits,_ZNK5Eigen9EigenBaseINS_6MatrixIdLi4ELi1ELi0ELi4ELi1EEEE4sizeEv,comdat
	.align 2
	.weak	_ZNK5Eigen9EigenBaseINS_6MatrixIdLi4ELi1ELi0ELi4ELi1EEEE4sizeEv
	.type	_ZNK5Eigen9EigenBaseINS_6MatrixIdLi4ELi1ELi0ELi4ELi1EEEE4sizeEv, @function
_ZNK5Eigen9EigenBaseINS_6MatrixIdLi4ELi1ELi0ELi4ELi1EEEE4sizeEv:
.LFB7938:
	.cfi_startproc
	endbr64
	pushq	%rbp
	.cfi_def_cfa_offset 16
	.cfi_offset 6, -16
	movq	%rsp, %rbp
	.cfi_def_cfa_register 6
	pushq	%rbx
	subq	$24, %rsp
	.cfi_offset 3, -24
	movq	%rdi, -24(%rbp)
	movq	-24(%rbp), %rax
	movq	%rax, %rdi
	call	_ZNK5Eigen9EigenBaseINS_6MatrixIdLi4ELi1ELi0ELi4ELi1EEEE4rowsEv
	movq	%rax, %rbx
	movq	-24(%rbp), %rax
	movq	%rax, %rdi
	call	_ZNK5Eigen9EigenBaseINS_6MatrixIdLi4ELi1ELi0ELi4ELi1EEEE4colsEv
	imulq	%rbx, %rax
	movq	-8(%rbp), %rbx
	leave
	.cfi_def_cfa 7, 8
	ret
	.cfi_endproc
.LFE7938:
	.size	_ZNK5Eigen9EigenBaseINS_6MatrixIdLi4ELi1ELi0ELi4ELi1EEEE4sizeEv, .-_ZNK5Eigen9EigenBaseINS_6MatrixIdLi4ELi1ELi0ELi4ELi1EEEE4sizeEv
	.section	.text._ZN5Eigen8internal9evaluatorINS_15PlainObjectBaseINS_6MatrixIdLi4ELi1ELi0ELi4ELi1EEEEEED2Ev,"axG",@progbits,_ZN5Eigen8internal9evaluatorINS_15PlainObjectBaseINS_6MatrixIdLi4ELi1ELi0ELi4ELi1EEEEEED5Ev,comdat
	.align 2
	.weak	_ZN5Eigen8internal9evaluatorINS_15PlainObjectBaseINS_6MatrixIdLi4ELi1ELi0ELi4ELi1EEEEEED2Ev
	.type	_ZN5Eigen8internal9evaluatorINS_15PlainObjectBaseINS_6MatrixIdLi4ELi1ELi0ELi4ELi1EEEEEED2Ev, @function
_ZN5Eigen8internal9evaluatorINS_15PlainObjectBaseINS_6MatrixIdLi4ELi1ELi0ELi4ELi1EEEEEED2Ev:
.LFB7943:
	.cfi_startproc
	endbr64
	pushq	%rbp
	.cfi_def_cfa_offset 16
	.cfi_offset 6, -16
	movq	%rsp, %rbp
	.cfi_def_cfa_register 6
	subq	$16, %rsp
	movq	%rdi, -8(%rbp)
	movq	-8(%rbp), %rax
	movq	%rax, %rdi
	call	_ZN5Eigen8internal14evaluator_baseINS_6MatrixIdLi4ELi1ELi0ELi4ELi1EEEED2Ev
	nop
	leave
	.cfi_def_cfa 7, 8
	ret
	.cfi_endproc
.LFE7943:
	.size	_ZN5Eigen8internal9evaluatorINS_15PlainObjectBaseINS_6MatrixIdLi4ELi1ELi0ELi4ELi1EEEEEED2Ev, .-_ZN5Eigen8internal9evaluatorINS_15PlainObjectBaseINS_6MatrixIdLi4ELi1ELi0ELi4ELi1EEEEEED2Ev
	.weak	_ZN5Eigen8internal9evaluatorINS_15PlainObjectBaseINS_6MatrixIdLi4ELi1ELi0ELi4ELi1EEEEEED1Ev
	.set	_ZN5Eigen8internal9evaluatorINS_15PlainObjectBaseINS_6MatrixIdLi4ELi1ELi0ELi4ELi1EEEEEED1Ev,_ZN5Eigen8internal9evaluatorINS_15PlainObjectBaseINS_6MatrixIdLi4ELi1ELi0ELi4ELi1EEEEEED2Ev
	.section	.text._ZN5Eigen8internal9evaluatorINS_6MatrixIdLi4ELi1ELi0ELi4ELi1EEEED2Ev,"axG",@progbits,_ZN5Eigen8internal9evaluatorINS_6MatrixIdLi4ELi1ELi0ELi4ELi1EEEED5Ev,comdat
	.align 2
	.weak	_ZN5Eigen8internal9evaluatorINS_6MatrixIdLi4ELi1ELi0ELi4ELi1EEEED2Ev
	.type	_ZN5Eigen8internal9evaluatorINS_6MatrixIdLi4ELi1ELi0ELi4ELi1EEEED2Ev, @function
_ZN5Eigen8internal9evaluatorINS_6MatrixIdLi4ELi1ELi0ELi4ELi1EEEED2Ev:
.LFB7945:
	.cfi_startproc
	endbr64
	pushq	%rbp
	.cfi_def_cfa_offset 16
	.cfi_offset 6, -16
	movq	%rsp, %rbp
	.cfi_def_cfa_register 6
	subq	$16, %rsp
	movq	%rdi, -8(%rbp)
	movq	-8(%rbp), %rax
	movq	%rax, %rdi
	call	_ZN5Eigen8internal9evaluatorINS_15PlainObjectBaseINS_6MatrixIdLi4ELi1ELi0ELi4ELi1EEEEEED2Ev
	nop
	leave
	.cfi_def_cfa 7, 8
	ret
	.cfi_endproc
.LFE7945:
	.size	_ZN5Eigen8internal9evaluatorINS_6MatrixIdLi4ELi1ELi0ELi4ELi1EEEED2Ev, .-_ZN5Eigen8internal9evaluatorINS_6MatrixIdLi4ELi1ELi0ELi4ELi1EEEED2Ev
	.weak	_ZN5Eigen8internal9evaluatorINS_6MatrixIdLi4ELi1ELi0ELi4ELi1EEEED1Ev
	.set	_ZN5Eigen8internal9evaluatorINS_6MatrixIdLi4ELi1ELi0ELi4ELi1EEEED1Ev,_ZN5Eigen8internal9evaluatorINS_6MatrixIdLi4ELi1ELi0ELi4ELi1EEEED2Ev
	.section	.text._ZN5Eigen15DenseCoeffsBaseINS_6MatrixIdLi4ELi1ELi0ELi4ELi1EEELi1EE8coeffRefEl,"axG",@progbits,_ZN5Eigen15DenseCoeffsBaseINS_6MatrixIdLi4ELi1ELi0ELi4ELi1EEELi1EE8coeffRefEl,comdat
	.align 2
	.weak	_ZN5Eigen15DenseCoeffsBaseINS_6MatrixIdLi4ELi1ELi0ELi4ELi1EEELi1EE8coeffRefEl
	.type	_ZN5Eigen15DenseCoeffsBaseINS_6MatrixIdLi4ELi1ELi0ELi4ELi1EEELi1EE8coeffRefEl, @function
_ZN5Eigen15DenseCoeffsBaseINS_6MatrixIdLi4ELi1ELi0ELi4ELi1EEELi1EE8coeffRefEl:
.LFB7940:
	.cfi_startproc
	endbr64
	pushq	%rbp
	.cfi_def_cfa_offset 16
	.cfi_offset 6, -16
	movq	%rsp, %rbp
	.cfi_def_cfa_register 6
	pushq	%rbx
	subq	$40, %rsp
	.cfi_offset 3, -24
	movq	%rdi, -40(%rbp)
	movq	%rsi, -48(%rbp)
	movq	%fs:40, %rax
	movq	%rax, -24(%rbp)
	xorl	%eax, %eax
	movq	-40(%rbp), %rax
	movq	%rax, %rdi
	call	_ZN5Eigen9EigenBaseINS_6MatrixIdLi4ELi1ELi0ELi4ELi1EEEE7derivedEv
	movq	%rax, %rdx
	leaq	-32(%rbp), %rax
	movq	%rdx, %rsi
	movq	%rax, %rdi
	call	_ZN5Eigen8internal9evaluatorINS_6MatrixIdLi4ELi1ELi0ELi4ELi1EEEEC1ERKS3_
	movq	-48(%rbp), %rdx
	leaq	-32(%rbp), %rax
	movq	%rdx, %rsi
	movq	%rax, %rdi
	call	_ZN5Eigen8internal9evaluatorINS_15PlainObjectBaseINS_6MatrixIdLi4ELi1ELi0ELi4ELi1EEEEEE8coeffRefEl
	movq	%rax, %rbx
	nop
	leaq	-32(%rbp), %rax
	movq	%rax, %rdi
	call	_ZN5Eigen8internal9evaluatorINS_6MatrixIdLi4ELi1ELi0ELi4ELi1EEEED1Ev
	movq	%rbx, %rax
	movq	-24(%rbp), %rdx
	subq	%fs:40, %rdx
	je	.L87
	call	__stack_chk_fail@PLT
.L87:
	movq	-8(%rbp), %rbx
	leave
	.cfi_def_cfa 7, 8
	ret
	.cfi_endproc
.LFE7940:
	.size	_ZN5Eigen15DenseCoeffsBaseINS_6MatrixIdLi4ELi1ELi0ELi4ELi1EEELi1EE8coeffRefEl, .-_ZN5Eigen15DenseCoeffsBaseINS_6MatrixIdLi4ELi1ELi0ELi4ELi1EEELi1EE8coeffRefEl
	.section	.text._ZN5Eigen10MatrixBaseINS_6MatrixIdLi5ELi1ELi0ELi5ELi1EEEEC2Ev,"axG",@progbits,_ZN5Eigen10MatrixBaseINS_6MatrixIdLi5ELi1ELi0ELi5ELi1EEEEC5Ev,comdat
	.align 2
	.weak	_ZN5Eigen10MatrixBaseINS_6MatrixIdLi5ELi1ELi0ELi5ELi1EEEEC2Ev
	.type	_ZN5Eigen10MatrixBaseINS_6MatrixIdLi5ELi1ELi0ELi5ELi1EEEEC2Ev, @function
_ZN5Eigen10MatrixBaseINS_6MatrixIdLi5ELi1ELi0ELi5ELi1EEEEC2Ev:
.LFB7955:
	.cfi_startproc
	endbr64
	pushq	%rbp
	.cfi_def_cfa_offset 16
	.cfi_offset 6, -16
	movq	%rsp, %rbp
	.cfi_def_cfa_register 6
	subq	$16, %rsp
	movq	%rdi, -8(%rbp)
	movq	-8(%rbp), %rax
	movq	%rax, %rdi
	call	_ZN5Eigen9DenseBaseINS_6MatrixIdLi5ELi1ELi0ELi5ELi1EEEEC2Ev
	nop
	leave
	.cfi_def_cfa 7, 8
	ret
	.cfi_endproc
.LFE7955:
	.size	_ZN5Eigen10MatrixBaseINS_6MatrixIdLi5ELi1ELi0ELi5ELi1EEEEC2Ev, .-_ZN5Eigen10MatrixBaseINS_6MatrixIdLi5ELi1ELi0ELi5ELi1EEEEC2Ev
	.weak	_ZN5Eigen10MatrixBaseINS_6MatrixIdLi5ELi1ELi0ELi5ELi1EEEEC1Ev
	.set	_ZN5Eigen10MatrixBaseINS_6MatrixIdLi5ELi1ELi0ELi5ELi1EEEEC1Ev,_ZN5Eigen10MatrixBaseINS_6MatrixIdLi5ELi1ELi0ELi5ELi1EEEEC2Ev
	.section	.text._ZN5Eigen15PlainObjectBaseINS_6MatrixIdLi5ELi1ELi0ELi5ELi1EEEEC2Ev,"axG",@progbits,_ZN5Eigen15PlainObjectBaseINS_6MatrixIdLi5ELi1ELi0ELi5ELi1EEEEC5Ev,comdat
	.align 2
	.weak	_ZN5Eigen15PlainObjectBaseINS_6MatrixIdLi5ELi1ELi0ELi5ELi1EEEEC2Ev
	.type	_ZN5Eigen15PlainObjectBaseINS_6MatrixIdLi5ELi1ELi0ELi5ELi1EEEEC2Ev, @function
_ZN5Eigen15PlainObjectBaseINS_6MatrixIdLi5ELi1ELi0ELi5ELi1EEEEC2Ev:
.LFB7957:
	.cfi_startproc
	endbr64
	pushq	%rbp
	.cfi_def_cfa_offset 16
	.cfi_offset 6, -16
	movq	%rsp, %rbp
	.cfi_def_cfa_register 6
	subq	$16, %rsp
	movq	%rdi, -8(%rbp)
	movq	-8(%rbp), %rax
	movq	%rax, %rdi
	call	_ZN5Eigen10MatrixBaseINS_6MatrixIdLi5ELi1ELi0ELi5ELi1EEEEC2Ev
	movq	-8(%rbp), %rax
	movq	%rax, %rdi
	call	_ZN5Eigen12DenseStorageIdLi5ELi5ELi1ELi0EEC1Ev
	nop
	leave
	.cfi_def_cfa 7, 8
	ret
	.cfi_endproc
.LFE7957:
	.size	_ZN5Eigen15PlainObjectBaseINS_6MatrixIdLi5ELi1ELi0ELi5ELi1EEEEC2Ev, .-_ZN5Eigen15PlainObjectBaseINS_6MatrixIdLi5ELi1ELi0ELi5ELi1EEEEC2Ev
	.weak	_ZN5Eigen15PlainObjectBaseINS_6MatrixIdLi5ELi1ELi0ELi5ELi1EEEEC1Ev
	.set	_ZN5Eigen15PlainObjectBaseINS_6MatrixIdLi5ELi1ELi0ELi5ELi1EEEEC1Ev,_ZN5Eigen15PlainObjectBaseINS_6MatrixIdLi5ELi1ELi0ELi5ELi1EEEEC2Ev
	.section	.text._ZN5Eigen15PlainObjectBaseINS_6MatrixIdLi5ELi1ELi0ELi5ELi1EEEE22_check_template_paramsEv,"axG",@progbits,_ZN5Eigen15PlainObjectBaseINS_6MatrixIdLi5ELi1ELi0ELi5ELi1EEEE22_check_template_paramsEv,comdat
	.weak	_ZN5Eigen15PlainObjectBaseINS_6MatrixIdLi5ELi1ELi0ELi5ELi1EEEE22_check_template_paramsEv
	.type	_ZN5Eigen15PlainObjectBaseINS_6MatrixIdLi5ELi1ELi0ELi5ELi1EEEE22_check_template_paramsEv, @function
_ZN5Eigen15PlainObjectBaseINS_6MatrixIdLi5ELi1ELi0ELi5ELi1EEEE22_check_template_paramsEv:
.LFB7959:
	.cfi_startproc
	endbr64
	pushq	%rbp
	.cfi_def_cfa_offset 16
	.cfi_offset 6, -16
	movq	%rsp, %rbp
	.cfi_def_cfa_register 6
	nop
	popq	%rbp
	.cfi_def_cfa 7, 8
	ret
	.cfi_endproc
.LFE7959:
	.size	_ZN5Eigen15PlainObjectBaseINS_6MatrixIdLi5ELi1ELi0ELi5ELi1EEEE22_check_template_paramsEv, .-_ZN5Eigen15PlainObjectBaseINS_6MatrixIdLi5ELi1ELi0ELi5ELi1EEEE22_check_template_paramsEv
	.section	.rodata
	.align 8
.LC19:
	.string	"Eigen::CommaInitializer<MatrixType>::CommaInitializer(XprType&, const Scalar&) [with XprType = Eigen::Matrix<double, 5, 1>; Eigen::CommaInitializer<MatrixType>::Scalar = double]"
	.align 8
.LC20:
	.string	"m_xpr.rows() > 0 && m_xpr.cols() > 0 && \"Cannot comma-initialize a 0x0 matrix (operator<<)\""
	.section	.text._ZN5Eigen16CommaInitializerINS_6MatrixIdLi5ELi1ELi0ELi5ELi1EEEEC2ERS2_RKd,"axG",@progbits,_ZN5Eigen16CommaInitializerINS_6MatrixIdLi5ELi1ELi0ELi5ELi1EEEEC5ERS2_RKd,comdat
	.align 2
	.weak	_ZN5Eigen16CommaInitializerINS_6MatrixIdLi5ELi1ELi0ELi5ELi1EEEEC2ERS2_RKd
	.type	_ZN5Eigen16CommaInitializerINS_6MatrixIdLi5ELi1ELi0ELi5ELi1EEEEC2ERS2_RKd, @function
_ZN5Eigen16CommaInitializerINS_6MatrixIdLi5ELi1ELi0ELi5ELi1EEEEC2ERS2_RKd:
.LFB7961:
	.cfi_startproc
	endbr64
	pushq	%rbp
	.cfi_def_cfa_offset 16
	.cfi_offset 6, -16
	movq	%rsp, %rbp
	.cfi_def_cfa_register 6
	subq	$32, %rsp
	movq	%rdi, -8(%rbp)
	movq	%rsi, -16(%rbp)
	movq	%rdx, -24(%rbp)
	movq	-8(%rbp), %rax
	movq	-16(%rbp), %rdx
	movq	%rdx, (%rax)
	movq	-8(%rbp), %rax
	movq	$0, 8(%rax)
	movq	-8(%rbp), %rax
	movq	$1, 16(%rax)
	movq	-8(%rbp), %rax
	movq	$1, 24(%rax)
	movq	-8(%rbp), %rax
	movq	(%rax), %rax
	movq	%rax, %rdi
	call	_ZNK5Eigen15PlainObjectBaseINS_6MatrixIdLi5ELi1ELi0ELi5ELi1EEEE4rowsEv
	testq	%rax, %rax
	jle	.L92
	movq	-8(%rbp), %rax
	movq	(%rax), %rax
	movq	%rax, %rdi
	call	_ZNK5Eigen15PlainObjectBaseINS_6MatrixIdLi5ELi1ELi0ELi5ELi1EEEE4colsEv
	testq	%rax, %rax
	jg	.L95
.L92:
	leaq	.LC19(%rip), %rax
	movq	%rax, %rcx
	movl	$36, %edx
	leaq	.LC15(%rip), %rax
	movq	%rax, %rsi
	leaq	.LC20(%rip), %rax
	movq	%rax, %rdi
	call	__assert_fail@PLT
.L95:
	nop
	movq	-8(%rbp), %rax
	movq	(%rax), %rax
	movl	$0, %edx
	movl	$0, %esi
	movq	%rax, %rdi
	call	_ZN5Eigen15PlainObjectBaseINS_6MatrixIdLi5ELi1ELi0ELi5ELi1EEEE8coeffRefEll
	movq	-24(%rbp), %rdx
	movsd	(%rdx), %xmm0
	movsd	%xmm0, (%rax)
	nop
	leave
	.cfi_def_cfa 7, 8
	ret
	.cfi_endproc
.LFE7961:
	.size	_ZN5Eigen16CommaInitializerINS_6MatrixIdLi5ELi1ELi0ELi5ELi1EEEEC2ERS2_RKd, .-_ZN5Eigen16CommaInitializerINS_6MatrixIdLi5ELi1ELi0ELi5ELi1EEEEC2ERS2_RKd
	.weak	_ZN5Eigen16CommaInitializerINS_6MatrixIdLi5ELi1ELi0ELi5ELi1EEEEC1ERS2_RKd
	.set	_ZN5Eigen16CommaInitializerINS_6MatrixIdLi5ELi1ELi0ELi5ELi1EEEEC1ERS2_RKd,_ZN5Eigen16CommaInitializerINS_6MatrixIdLi5ELi1ELi0ELi5ELi1EEEEC2ERS2_RKd
	.section	.rodata
	.align 8
.LC21:
	.string	"XprType& Eigen::CommaInitializer<MatrixType>::finished() [with XprType = Eigen::Matrix<double, 5, 1>]"
	.align 8
.LC22:
	.string	"((m_row+m_currentBlockRows) == m_xpr.rows() || m_xpr.cols() == 0) && m_col == m_xpr.cols() && \"Too few coefficients passed to comma initializer (operator<<)\""
	.section	.text._ZN5Eigen16CommaInitializerINS_6MatrixIdLi5ELi1ELi0ELi5ELi1EEEE8finishedEv,"axG",@progbits,_ZN5Eigen16CommaInitializerINS_6MatrixIdLi5ELi1ELi0ELi5ELi1EEEE8finishedEv,comdat
	.align 2
	.weak	_ZN5Eigen16CommaInitializerINS_6MatrixIdLi5ELi1ELi0ELi5ELi1EEEE8finishedEv
	.type	_ZN5Eigen16CommaInitializerINS_6MatrixIdLi5ELi1ELi0ELi5ELi1EEEE8finishedEv, @function
_ZN5Eigen16CommaInitializerINS_6MatrixIdLi5ELi1ELi0ELi5ELi1EEEE8finishedEv:
.LFB7966:
	.cfi_startproc
	endbr64
	pushq	%rbp
	.cfi_def_cfa_offset 16
	.cfi_offset 6, -16
	movq	%rsp, %rbp
	.cfi_def_cfa_register 6
	pushq	%rbx
	subq	$24, %rsp
	.cfi_offset 3, -24
	movq	%rdi, -24(%rbp)
	movq	-24(%rbp), %rax
	movq	8(%rax), %rdx
	movq	-24(%rbp), %rax
	movq	24(%rax), %rax
	leaq	(%rdx,%rax), %rbx
	movq	-24(%rbp), %rax
	movq	(%rax), %rax
	movq	%rax, %rdi
	call	_ZNK5Eigen15PlainObjectBaseINS_6MatrixIdLi5ELi1ELi0ELi5ELi1EEEE4rowsEv
	cmpq	%rax, %rbx
	je	.L97
	movq	-24(%rbp), %rax
	movq	(%rax), %rax
	movq	%rax, %rdi
	call	_ZNK5Eigen15PlainObjectBaseINS_6MatrixIdLi5ELi1ELi0ELi5ELi1EEEE4colsEv
	testq	%rax, %rax
	jne	.L98
.L97:
	movq	-24(%rbp), %rax
	movq	16(%rax), %rbx
	movq	-24(%rbp), %rax
	movq	(%rax), %rax
	movq	%rax, %rdi
	call	_ZNK5Eigen15PlainObjectBaseINS_6MatrixIdLi5ELi1ELi0ELi5ELi1EEEE4colsEv
	cmpq	%rax, %rbx
	je	.L102
.L98:
	leaq	.LC21(%rip), %rax
	movq	%rax, %rcx
	movl	$122, %edx
	leaq	.LC15(%rip), %rax
	movq	%rax, %rsi
	leaq	.LC22(%rip), %rax
	movq	%rax, %rdi
	call	__assert_fail@PLT
.L102:
	nop
	movq	-24(%rbp), %rax
	movq	(%rax), %rax
	movq	-8(%rbp), %rbx
	leave
	.cfi_def_cfa 7, 8
	ret
	.cfi_endproc
.LFE7966:
	.size	_ZN5Eigen16CommaInitializerINS_6MatrixIdLi5ELi1ELi0ELi5ELi1EEEE8finishedEv, .-_ZN5Eigen16CommaInitializerINS_6MatrixIdLi5ELi1ELi0ELi5ELi1EEEE8finishedEv
	.section	.text._ZNK5Eigen15PlainObjectBaseINS_6MatrixIdLi5ELi1ELi0ELi5ELi1EEEE4colsEv,"axG",@progbits,_ZNK5Eigen15PlainObjectBaseINS_6MatrixIdLi5ELi1ELi0ELi5ELi1EEEE4colsEv,comdat
	.align 2
	.weak	_ZNK5Eigen15PlainObjectBaseINS_6MatrixIdLi5ELi1ELi0ELi5ELi1EEEE4colsEv
	.type	_ZNK5Eigen15PlainObjectBaseINS_6MatrixIdLi5ELi1ELi0ELi5ELi1EEEE4colsEv, @function
_ZNK5Eigen15PlainObjectBaseINS_6MatrixIdLi5ELi1ELi0ELi5ELi1EEEE4colsEv:
.LFB7967:
	.cfi_startproc
	endbr64
	pushq	%rbp
	.cfi_def_cfa_offset 16
	.cfi_offset 6, -16
	movq	%rsp, %rbp
	.cfi_def_cfa_register 6
	subq	$16, %rsp
	movq	%rdi, -8(%rbp)
	call	_ZN5Eigen12DenseStorageIdLi5ELi5ELi1ELi0EE4colsEv
	leave
	.cfi_def_cfa 7, 8
	ret
	.cfi_endproc
.LFE7967:
	.size	_ZNK5Eigen15PlainObjectBaseINS_6MatrixIdLi5ELi1ELi0ELi5ELi1EEEE4colsEv, .-_ZNK5Eigen15PlainObjectBaseINS_6MatrixIdLi5ELi1ELi0ELi5ELi1EEEE4colsEv
	.section	.text._ZNK5Eigen15PlainObjectBaseINS_6MatrixIdLi5ELi1ELi0ELi5ELi1EEEE4rowsEv,"axG",@progbits,_ZNK5Eigen15PlainObjectBaseINS_6MatrixIdLi5ELi1ELi0ELi5ELi1EEEE4rowsEv,comdat
	.align 2
	.weak	_ZNK5Eigen15PlainObjectBaseINS_6MatrixIdLi5ELi1ELi0ELi5ELi1EEEE4rowsEv
	.type	_ZNK5Eigen15PlainObjectBaseINS_6MatrixIdLi5ELi1ELi0ELi5ELi1EEEE4rowsEv, @function
_ZNK5Eigen15PlainObjectBaseINS_6MatrixIdLi5ELi1ELi0ELi5ELi1EEEE4rowsEv:
.LFB7968:
	.cfi_startproc
	endbr64
	pushq	%rbp
	.cfi_def_cfa_offset 16
	.cfi_offset 6, -16
	movq	%rsp, %rbp
	.cfi_def_cfa_register 6
	subq	$16, %rsp
	movq	%rdi, -8(%rbp)
	call	_ZN5Eigen12DenseStorageIdLi5ELi5ELi1ELi0EE4rowsEv
	leave
	.cfi_def_cfa 7, 8
	ret
	.cfi_endproc
.LFE7968:
	.size	_ZNK5Eigen15PlainObjectBaseINS_6MatrixIdLi5ELi1ELi0ELi5ELi1EEEE4rowsEv, .-_ZNK5Eigen15PlainObjectBaseINS_6MatrixIdLi5ELi1ELi0ELi5ELi1EEEE4rowsEv
	.section	.text._ZN5Eigen15PlainObjectBaseINS_6MatrixIdLi5ELi1ELi0ELi5ELi1EEEE8coeffRefEll,"axG",@progbits,_ZN5Eigen15PlainObjectBaseINS_6MatrixIdLi5ELi1ELi0ELi5ELi1EEEE8coeffRefEll,comdat
	.align 2
	.weak	_ZN5Eigen15PlainObjectBaseINS_6MatrixIdLi5ELi1ELi0ELi5ELi1EEEE8coeffRefEll
	.type	_ZN5Eigen15PlainObjectBaseINS_6MatrixIdLi5ELi1ELi0ELi5ELi1EEEE8coeffRefEll, @function
_ZN5Eigen15PlainObjectBaseINS_6MatrixIdLi5ELi1ELi0ELi5ELi1EEEE8coeffRefEll:
.LFB7969:
	.cfi_startproc
	endbr64
	pushq	%rbp
	.cfi_def_cfa_offset 16
	.cfi_offset 6, -16
	movq	%rsp, %rbp
	.cfi_def_cfa_register 6
	pushq	%rbx
	subq	$40, %rsp
	.cfi_offset 3, -24
	movq	%rdi, -24(%rbp)
	movq	%rsi, -32(%rbp)
	movq	%rdx, -40(%rbp)
	movq	-24(%rbp), %rax
	movq	%rax, %rdi
	call	_ZN5Eigen12DenseStorageIdLi5ELi5ELi1ELi0EE4dataEv
	movq	%rax, %rbx
	call	_ZN5Eigen12DenseStorageIdLi5ELi5ELi1ELi0EE4rowsEv
	imulq	-40(%rbp), %rax
	movq	%rax, %rdx
	movq	-32(%rbp), %rax
	addq	%rdx, %rax
	salq	$3, %rax
	addq	%rbx, %rax
	movq	-8(%rbp), %rbx
	leave
	.cfi_def_cfa 7, 8
	ret
	.cfi_endproc
.LFE7969:
	.size	_ZN5Eigen15PlainObjectBaseINS_6MatrixIdLi5ELi1ELi0ELi5ELi1EEEE8coeffRefEll, .-_ZN5Eigen15PlainObjectBaseINS_6MatrixIdLi5ELi1ELi0ELi5ELi1EEEE8coeffRefEll
	.section	.text._ZN5Eigen15PlainObjectBaseINS_6MatrixIdLi5ELi1ELi0ELi5ELi1EEEEC2ERKS3_,"axG",@progbits,_ZN5Eigen15PlainObjectBaseINS_6MatrixIdLi5ELi1ELi0ELi5ELi1EEEEC5ERKS3_,comdat
	.align 2
	.weak	_ZN5Eigen15PlainObjectBaseINS_6MatrixIdLi5ELi1ELi0ELi5ELi1EEEEC2ERKS3_
	.type	_ZN5Eigen15PlainObjectBaseINS_6MatrixIdLi5ELi1ELi0ELi5ELi1EEEEC2ERKS3_, @function
_ZN5Eigen15PlainObjectBaseINS_6MatrixIdLi5ELi1ELi0ELi5ELi1EEEEC2ERKS3_:
.LFB7971:
	.cfi_startproc
	endbr64
	pushq	%rbp
	.cfi_def_cfa_offset 16
	.cfi_offset 6, -16
	movq	%rsp, %rbp
	.cfi_def_cfa_register 6
	pushq	%rbx
	subq	$24, %rsp
	.cfi_offset 3, -24
	movq	%rdi, -24(%rbp)
	movq	%rsi, -32(%rbp)
	movq	-24(%rbp), %rax
	movq	%rax, %rdi
	call	_ZN5Eigen10MatrixBaseINS_6MatrixIdLi5ELi1ELi0ELi5ELi1EEEEC2Ev
	movq	-24(%rbp), %rax
	movq	-32(%rbp), %rdx
	movq	(%rdx), %rcx
	movq	8(%rdx), %rbx
	movq	%rcx, (%rax)
	movq	%rbx, 8(%rax)
	movq	16(%rdx), %rcx
	movq	24(%rdx), %rbx
	movq	%rcx, 16(%rax)
	movq	%rbx, 24(%rax)
	movq	32(%rdx), %rdx
	movq	%rdx, 32(%rax)
	nop
	movq	-8(%rbp), %rbx
	leave
	.cfi_def_cfa 7, 8
	ret
	.cfi_endproc
.LFE7971:
	.size	_ZN5Eigen15PlainObjectBaseINS_6MatrixIdLi5ELi1ELi0ELi5ELi1EEEEC2ERKS3_, .-_ZN5Eigen15PlainObjectBaseINS_6MatrixIdLi5ELi1ELi0ELi5ELi1EEEEC2ERKS3_
	.weak	_ZN5Eigen15PlainObjectBaseINS_6MatrixIdLi5ELi1ELi0ELi5ELi1EEEEC1ERKS3_
	.set	_ZN5Eigen15PlainObjectBaseINS_6MatrixIdLi5ELi1ELi0ELi5ELi1EEEEC1ERKS3_,_ZN5Eigen15PlainObjectBaseINS_6MatrixIdLi5ELi1ELi0ELi5ELi1EEEEC2ERKS3_
	.section	.text._ZN5Eigen9DenseBaseINS_6MatrixIdLi4ELi1ELi0ELi4ELi1EEEEC2Ev,"axG",@progbits,_ZN5Eigen9DenseBaseINS_6MatrixIdLi4ELi1ELi0ELi4ELi1EEEEC5Ev,comdat
	.align 2
	.weak	_ZN5Eigen9DenseBaseINS_6MatrixIdLi4ELi1ELi0ELi4ELi1EEEEC2Ev
	.type	_ZN5Eigen9DenseBaseINS_6MatrixIdLi4ELi1ELi0ELi4ELi1EEEEC2Ev, @function
_ZN5Eigen9DenseBaseINS_6MatrixIdLi4ELi1ELi0ELi4ELi1EEEEC2Ev:
.LFB8022:
	.cfi_startproc
	endbr64
	pushq	%rbp
	.cfi_def_cfa_offset 16
	.cfi_offset 6, -16
	movq	%rsp, %rbp
	.cfi_def_cfa_register 6
	movq	%rdi, -8(%rbp)
	nop
	popq	%rbp
	.cfi_def_cfa 7, 8
	ret
	.cfi_endproc
.LFE8022:
	.size	_ZN5Eigen9DenseBaseINS_6MatrixIdLi4ELi1ELi0ELi4ELi1EEEEC2Ev, .-_ZN5Eigen9DenseBaseINS_6MatrixIdLi4ELi1ELi0ELi4ELi1EEEEC2Ev
	.weak	_ZN5Eigen9DenseBaseINS_6MatrixIdLi4ELi1ELi0ELi4ELi1EEEEC1Ev
	.set	_ZN5Eigen9DenseBaseINS_6MatrixIdLi4ELi1ELi0ELi4ELi1EEEEC1Ev,_ZN5Eigen9DenseBaseINS_6MatrixIdLi4ELi1ELi0ELi4ELi1EEEEC2Ev
	.section	.text._ZN5Eigen12DenseStorageIdLi4ELi4ELi1ELi0EEC2Ev,"axG",@progbits,_ZN5Eigen12DenseStorageIdLi4ELi4ELi1ELi0EEC5Ev,comdat
	.align 2
	.weak	_ZN5Eigen12DenseStorageIdLi4ELi4ELi1ELi0EEC2Ev
	.type	_ZN5Eigen12DenseStorageIdLi4ELi4ELi1ELi0EEC2Ev, @function
_ZN5Eigen12DenseStorageIdLi4ELi4ELi1ELi0EEC2Ev:
.LFB8025:
	.cfi_startproc
	endbr64
	pushq	%rbp
	.cfi_def_cfa_offset 16
	.cfi_offset 6, -16
	movq	%rsp, %rbp
	.cfi_def_cfa_register 6
	subq	$16, %rsp
	movq	%rdi, -8(%rbp)
	movq	-8(%rbp), %rax
	movq	%rax, %rdi
	call	_ZN5Eigen8internal11plain_arrayIdLi4ELi0ELi16EEC1Ev
	nop
	leave
	.cfi_def_cfa 7, 8
	ret
	.cfi_endproc
.LFE8025:
	.size	_ZN5Eigen12DenseStorageIdLi4ELi4ELi1ELi0EEC2Ev, .-_ZN5Eigen12DenseStorageIdLi4ELi4ELi1ELi0EEC2Ev
	.weak	_ZN5Eigen12DenseStorageIdLi4ELi4ELi1ELi0EEC1Ev
	.set	_ZN5Eigen12DenseStorageIdLi4ELi4ELi1ELi0EEC1Ev,_ZN5Eigen12DenseStorageIdLi4ELi4ELi1ELi0EEC2Ev
	.section	.text._ZNK5Eigen9EigenBaseINS_6MatrixIdLi5ELi1ELi0ELi5ELi1EEEE4colsEv,"axG",@progbits,_ZNK5Eigen9EigenBaseINS_6MatrixIdLi5ELi1ELi0ELi5ELi1EEEE4colsEv,comdat
	.align 2
	.weak	_ZNK5Eigen9EigenBaseINS_6MatrixIdLi5ELi1ELi0ELi5ELi1EEEE4colsEv
	.type	_ZNK5Eigen9EigenBaseINS_6MatrixIdLi5ELi1ELi0ELi5ELi1EEEE4colsEv, @function
_ZNK5Eigen9EigenBaseINS_6MatrixIdLi5ELi1ELi0ELi5ELi1EEEE4colsEv:
.LFB8027:
	.cfi_startproc
	endbr64
	pushq	%rbp
	.cfi_def_cfa_offset 16
	.cfi_offset 6, -16
	movq	%rsp, %rbp
	.cfi_def_cfa_register 6
	subq	$16, %rsp
	movq	%rdi, -8(%rbp)
	movq	-8(%rbp), %rax
	movq	%rax, %rdi
	call	_ZNK5Eigen9EigenBaseINS_6MatrixIdLi5ELi1ELi0ELi5ELi1EEEE7derivedEv
	movq	%rax, %rdi
	call	_ZNK5Eigen15PlainObjectBaseINS_6MatrixIdLi5ELi1ELi0ELi5ELi1EEEE4colsEv
	leave
	.cfi_def_cfa 7, 8
	ret
	.cfi_endproc
.LFE8027:
	.size	_ZNK5Eigen9EigenBaseINS_6MatrixIdLi5ELi1ELi0ELi5ELi1EEEE4colsEv, .-_ZNK5Eigen9EigenBaseINS_6MatrixIdLi5ELi1ELi0ELi5ELi1EEEE4colsEv
	.section	.text._ZNK5Eigen9EigenBaseINS_6MatrixIdLi5ELi1ELi0ELi5ELi1EEEE7derivedEv,"axG",@progbits,_ZNK5Eigen9EigenBaseINS_6MatrixIdLi5ELi1ELi0ELi5ELi1EEEE7derivedEv,comdat
	.align 2
	.weak	_ZNK5Eigen9EigenBaseINS_6MatrixIdLi5ELi1ELi0ELi5ELi1EEEE7derivedEv
	.type	_ZNK5Eigen9EigenBaseINS_6MatrixIdLi5ELi1ELi0ELi5ELi1EEEE7derivedEv, @function
_ZNK5Eigen9EigenBaseINS_6MatrixIdLi5ELi1ELi0ELi5ELi1EEEE7derivedEv:
.LFB8028:
	.cfi_startproc
	endbr64
	pushq	%rbp
	.cfi_def_cfa_offset 16
	.cfi_offset 6, -16
	movq	%rsp, %rbp
	.cfi_def_cfa_register 6
	movq	%rdi, -8(%rbp)
	movq	-8(%rbp), %rax
	popq	%rbp
	.cfi_def_cfa 7, 8
	ret
	.cfi_endproc
.LFE8028:
	.size	_ZNK5Eigen9EigenBaseINS_6MatrixIdLi5ELi1ELi0ELi5ELi1EEEE7derivedEv, .-_ZNK5Eigen9EigenBaseINS_6MatrixIdLi5ELi1ELi0ELi5ELi1EEEE7derivedEv
	.section	.text._ZN5Eigen9EigenBaseINS_6MatrixIdLi5ELi1ELi0ELi5ELi1EEEE7derivedEv,"axG",@progbits,_ZN5Eigen9EigenBaseINS_6MatrixIdLi5ELi1ELi0ELi5ELi1EEEE7derivedEv,comdat
	.align 2
	.weak	_ZN5Eigen9EigenBaseINS_6MatrixIdLi5ELi1ELi0ELi5ELi1EEEE7derivedEv
	.type	_ZN5Eigen9EigenBaseINS_6MatrixIdLi5ELi1ELi0ELi5ELi1EEEE7derivedEv, @function
_ZN5Eigen9EigenBaseINS_6MatrixIdLi5ELi1ELi0ELi5ELi1EEEE7derivedEv:
.LFB8029:
	.cfi_startproc
	endbr64
	pushq	%rbp
	.cfi_def_cfa_offset 16
	.cfi_offset 6, -16
	movq	%rsp, %rbp
	.cfi_def_cfa_register 6
	movq	%rdi, -8(%rbp)
	movq	-8(%rbp), %rax
	popq	%rbp
	.cfi_def_cfa 7, 8
	ret
	.cfi_endproc
.LFE8029:
	.size	_ZN5Eigen9EigenBaseINS_6MatrixIdLi5ELi1ELi0ELi5ELi1EEEE7derivedEv, .-_ZN5Eigen9EigenBaseINS_6MatrixIdLi5ELi1ELi0ELi5ELi1EEEE7derivedEv
	.section	.text._ZN5Eigen8internal9evaluatorINS_6MatrixIdLi5ELi1ELi0ELi5ELi1EEEEC2ERKS3_,"axG",@progbits,_ZN5Eigen8internal9evaluatorINS_6MatrixIdLi5ELi1ELi0ELi5ELi1EEEEC5ERKS3_,comdat
	.align 2
	.weak	_ZN5Eigen8internal9evaluatorINS_6MatrixIdLi5ELi1ELi0ELi5ELi1EEEEC2ERKS3_
	.type	_ZN5Eigen8internal9evaluatorINS_6MatrixIdLi5ELi1ELi0ELi5ELi1EEEEC2ERKS3_, @function
_ZN5Eigen8internal9evaluatorINS_6MatrixIdLi5ELi1ELi0ELi5ELi1EEEEC2ERKS3_:
.LFB8031:
	.cfi_startproc
	endbr64
	pushq	%rbp
	.cfi_def_cfa_offset 16
	.cfi_offset 6, -16
	movq	%rsp, %rbp
	.cfi_def_cfa_register 6
	subq	$16, %rsp
	movq	%rdi, -8(%rbp)
	movq	%rsi, -16(%rbp)
	movq	-8(%rbp), %rax
	movq	-16(%rbp), %rdx
	movq	%rdx, %rsi
	movq	%rax, %rdi
	call	_ZN5Eigen8internal9evaluatorINS_15PlainObjectBaseINS_6MatrixIdLi5ELi1ELi0ELi5ELi1EEEEEEC2ERKS5_
	nop
	leave
	.cfi_def_cfa 7, 8
	ret
	.cfi_endproc
.LFE8031:
	.size	_ZN5Eigen8internal9evaluatorINS_6MatrixIdLi5ELi1ELi0ELi5ELi1EEEEC2ERKS3_, .-_ZN5Eigen8internal9evaluatorINS_6MatrixIdLi5ELi1ELi0ELi5ELi1EEEEC2ERKS3_
	.weak	_ZN5Eigen8internal9evaluatorINS_6MatrixIdLi5ELi1ELi0ELi5ELi1EEEEC1ERKS3_
	.set	_ZN5Eigen8internal9evaluatorINS_6MatrixIdLi5ELi1ELi0ELi5ELi1EEEEC1ERKS3_,_ZN5Eigen8internal9evaluatorINS_6MatrixIdLi5ELi1ELi0ELi5ELi1EEEEC2ERKS3_
	.section	.text._ZN5Eigen8internal14evaluator_baseINS_6MatrixIdLi5ELi1ELi0ELi5ELi1EEEED2Ev,"axG",@progbits,_ZN5Eigen8internal14evaluator_baseINS_6MatrixIdLi5ELi1ELi0ELi5ELi1EEEED5Ev,comdat
	.align 2
	.weak	_ZN5Eigen8internal14evaluator_baseINS_6MatrixIdLi5ELi1ELi0ELi5ELi1EEEED2Ev
	.type	_ZN5Eigen8internal14evaluator_baseINS_6MatrixIdLi5ELi1ELi0ELi5ELi1EEEED2Ev, @function
_ZN5Eigen8internal14evaluator_baseINS_6MatrixIdLi5ELi1ELi0ELi5ELi1EEEED2Ev:
.LFB8034:
	.cfi_startproc
	endbr64
	pushq	%rbp
	.cfi_def_cfa_offset 16
	.cfi_offset 6, -16
	movq	%rsp, %rbp
	.cfi_def_cfa_register 6
	movq	%rdi, -8(%rbp)
	nop
	popq	%rbp
	.cfi_def_cfa 7, 8
	ret
	.cfi_endproc
.LFE8034:
	.size	_ZN5Eigen8internal14evaluator_baseINS_6MatrixIdLi5ELi1ELi0ELi5ELi1EEEED2Ev, .-_ZN5Eigen8internal14evaluator_baseINS_6MatrixIdLi5ELi1ELi0ELi5ELi1EEEED2Ev
	.weak	_ZN5Eigen8internal14evaluator_baseINS_6MatrixIdLi5ELi1ELi0ELi5ELi1EEEED1Ev
	.set	_ZN5Eigen8internal14evaluator_baseINS_6MatrixIdLi5ELi1ELi0ELi5ELi1EEEED1Ev,_ZN5Eigen8internal14evaluator_baseINS_6MatrixIdLi5ELi1ELi0ELi5ELi1EEEED2Ev
	.section	.text._ZN5Eigen8internal9evaluatorINS_15PlainObjectBaseINS_6MatrixIdLi5ELi1ELi0ELi5ELi1EEEEEE8coeffRefEl,"axG",@progbits,_ZN5Eigen8internal9evaluatorINS_15PlainObjectBaseINS_6MatrixIdLi5ELi1ELi0ELi5ELi1EEEEEE8coeffRefEl,comdat
	.align 2
	.weak	_ZN5Eigen8internal9evaluatorINS_15PlainObjectBaseINS_6MatrixIdLi5ELi1ELi0ELi5ELi1EEEEEE8coeffRefEl
	.type	_ZN5Eigen8internal9evaluatorINS_15PlainObjectBaseINS_6MatrixIdLi5ELi1ELi0ELi5ELi1EEEEEE8coeffRefEl, @function
_ZN5Eigen8internal9evaluatorINS_15PlainObjectBaseINS_6MatrixIdLi5ELi1ELi0ELi5ELi1EEEEEE8coeffRefEl:
.LFB8036:
	.cfi_startproc
	endbr64
	pushq	%rbp
	.cfi_def_cfa_offset 16
	.cfi_offset 6, -16
	movq	%rsp, %rbp
	.cfi_def_cfa_register 6
	movq	%rdi, -8(%rbp)
	movq	%rsi, -16(%rbp)
	movq	-8(%rbp), %rax
	movq	(%rax), %rdx
	movq	-16(%rbp), %rax
	salq	$3, %rax
	addq	%rdx, %rax
	popq	%rbp
	.cfi_def_cfa 7, 8
	ret
	.cfi_endproc
.LFE8036:
	.size	_ZN5Eigen8internal9evaluatorINS_15PlainObjectBaseINS_6MatrixIdLi5ELi1ELi0ELi5ELi1EEEEEE8coeffRefEl, .-_ZN5Eigen8internal9evaluatorINS_15PlainObjectBaseINS_6MatrixIdLi5ELi1ELi0ELi5ELi1EEEEEE8coeffRefEl
	.section	.text._ZNK5Eigen9EigenBaseINS_6MatrixIdLi4ELi1ELi0ELi4ELi1EEEE4colsEv,"axG",@progbits,_ZNK5Eigen9EigenBaseINS_6MatrixIdLi4ELi1ELi0ELi4ELi1EEEE4colsEv,comdat
	.align 2
	.weak	_ZNK5Eigen9EigenBaseINS_6MatrixIdLi4ELi1ELi0ELi4ELi1EEEE4colsEv
	.type	_ZNK5Eigen9EigenBaseINS_6MatrixIdLi4ELi1ELi0ELi4ELi1EEEE4colsEv, @function
_ZNK5Eigen9EigenBaseINS_6MatrixIdLi4ELi1ELi0ELi4ELi1EEEE4colsEv:
.LFB8037:
	.cfi_startproc
	endbr64
	pushq	%rbp
	.cfi_def_cfa_offset 16
	.cfi_offset 6, -16
	movq	%rsp, %rbp
	.cfi_def_cfa_register 6
	subq	$16, %rsp
	movq	%rdi, -8(%rbp)
	movq	-8(%rbp), %rax
	movq	%rax, %rdi
	call	_ZNK5Eigen9EigenBaseINS_6MatrixIdLi4ELi1ELi0ELi4ELi1EEEE7derivedEv
	movq	%rax, %rdi
	call	_ZNK5Eigen15PlainObjectBaseINS_6MatrixIdLi4ELi1ELi0ELi4ELi1EEEE4colsEv
	leave
	.cfi_def_cfa 7, 8
	ret
	.cfi_endproc
.LFE8037:
	.size	_ZNK5Eigen9EigenBaseINS_6MatrixIdLi4ELi1ELi0ELi4ELi1EEEE4colsEv, .-_ZNK5Eigen9EigenBaseINS_6MatrixIdLi4ELi1ELi0ELi4ELi1EEEE4colsEv
	.section	.text._ZNK5Eigen9EigenBaseINS_6MatrixIdLi4ELi1ELi0ELi4ELi1EEEE7derivedEv,"axG",@progbits,_ZNK5Eigen9EigenBaseINS_6MatrixIdLi4ELi1ELi0ELi4ELi1EEEE7derivedEv,comdat
	.align 2
	.weak	_ZNK5Eigen9EigenBaseINS_6MatrixIdLi4ELi1ELi0ELi4ELi1EEEE7derivedEv
	.type	_ZNK5Eigen9EigenBaseINS_6MatrixIdLi4ELi1ELi0ELi4ELi1EEEE7derivedEv, @function
_ZNK5Eigen9EigenBaseINS_6MatrixIdLi4ELi1ELi0ELi4ELi1EEEE7derivedEv:
.LFB8038:
	.cfi_startproc
	endbr64
	pushq	%rbp
	.cfi_def_cfa_offset 16
	.cfi_offset 6, -16
	movq	%rsp, %rbp
	.cfi_def_cfa_register 6
	movq	%rdi, -8(%rbp)
	movq	-8(%rbp), %rax
	popq	%rbp
	.cfi_def_cfa 7, 8
	ret
	.cfi_endproc
.LFE8038:
	.size	_ZNK5Eigen9EigenBaseINS_6MatrixIdLi4ELi1ELi0ELi4ELi1EEEE7derivedEv, .-_ZNK5Eigen9EigenBaseINS_6MatrixIdLi4ELi1ELi0ELi4ELi1EEEE7derivedEv
	.section	.text._ZNK5Eigen15PlainObjectBaseINS_6MatrixIdLi4ELi1ELi0ELi4ELi1EEEE4rowsEv,"axG",@progbits,_ZNK5Eigen15PlainObjectBaseINS_6MatrixIdLi4ELi1ELi0ELi4ELi1EEEE4rowsEv,comdat
	.align 2
	.weak	_ZNK5Eigen15PlainObjectBaseINS_6MatrixIdLi4ELi1ELi0ELi4ELi1EEEE4rowsEv
	.type	_ZNK5Eigen15PlainObjectBaseINS_6MatrixIdLi4ELi1ELi0ELi4ELi1EEEE4rowsEv, @function
_ZNK5Eigen15PlainObjectBaseINS_6MatrixIdLi4ELi1ELi0ELi4ELi1EEEE4rowsEv:
.LFB8039:
	.cfi_startproc
	endbr64
	pushq	%rbp
	.cfi_def_cfa_offset 16
	.cfi_offset 6, -16
	movq	%rsp, %rbp
	.cfi_def_cfa_register 6
	subq	$16, %rsp
	movq	%rdi, -8(%rbp)
	call	_ZN5Eigen12DenseStorageIdLi4ELi4ELi1ELi0EE4rowsEv
	leave
	.cfi_def_cfa 7, 8
	ret
	.cfi_endproc
.LFE8039:
	.size	_ZNK5Eigen15PlainObjectBaseINS_6MatrixIdLi4ELi1ELi0ELi4ELi1EEEE4rowsEv, .-_ZNK5Eigen15PlainObjectBaseINS_6MatrixIdLi4ELi1ELi0ELi4ELi1EEEE4rowsEv
	.section	.text._ZN5Eigen9EigenBaseINS_6MatrixIdLi4ELi1ELi0ELi4ELi1EEEE7derivedEv,"axG",@progbits,_ZN5Eigen9EigenBaseINS_6MatrixIdLi4ELi1ELi0ELi4ELi1EEEE7derivedEv,comdat
	.align 2
	.weak	_ZN5Eigen9EigenBaseINS_6MatrixIdLi4ELi1ELi0ELi4ELi1EEEE7derivedEv
	.type	_ZN5Eigen9EigenBaseINS_6MatrixIdLi4ELi1ELi0ELi4ELi1EEEE7derivedEv, @function
_ZN5Eigen9EigenBaseINS_6MatrixIdLi4ELi1ELi0ELi4ELi1EEEE7derivedEv:
.LFB8040:
	.cfi_startproc
	endbr64
	pushq	%rbp
	.cfi_def_cfa_offset 16
	.cfi_offset 6, -16
	movq	%rsp, %rbp
	.cfi_def_cfa_register 6
	movq	%rdi, -8(%rbp)
	movq	-8(%rbp), %rax
	popq	%rbp
	.cfi_def_cfa 7, 8
	ret
	.cfi_endproc
.LFE8040:
	.size	_ZN5Eigen9EigenBaseINS_6MatrixIdLi4ELi1ELi0ELi4ELi1EEEE7derivedEv, .-_ZN5Eigen9EigenBaseINS_6MatrixIdLi4ELi1ELi0ELi4ELi1EEEE7derivedEv
	.section	.text._ZN5Eigen8internal9evaluatorINS_6MatrixIdLi4ELi1ELi0ELi4ELi1EEEEC2ERKS3_,"axG",@progbits,_ZN5Eigen8internal9evaluatorINS_6MatrixIdLi4ELi1ELi0ELi4ELi1EEEEC5ERKS3_,comdat
	.align 2
	.weak	_ZN5Eigen8internal9evaluatorINS_6MatrixIdLi4ELi1ELi0ELi4ELi1EEEEC2ERKS3_
	.type	_ZN5Eigen8internal9evaluatorINS_6MatrixIdLi4ELi1ELi0ELi4ELi1EEEEC2ERKS3_, @function
_ZN5Eigen8internal9evaluatorINS_6MatrixIdLi4ELi1ELi0ELi4ELi1EEEEC2ERKS3_:
.LFB8042:
	.cfi_startproc
	endbr64
	pushq	%rbp
	.cfi_def_cfa_offset 16
	.cfi_offset 6, -16
	movq	%rsp, %rbp
	.cfi_def_cfa_register 6
	subq	$16, %rsp
	movq	%rdi, -8(%rbp)
	movq	%rsi, -16(%rbp)
	movq	-8(%rbp), %rax
	movq	-16(%rbp), %rdx
	movq	%rdx, %rsi
	movq	%rax, %rdi
	call	_ZN5Eigen8internal9evaluatorINS_15PlainObjectBaseINS_6MatrixIdLi4ELi1ELi0ELi4ELi1EEEEEEC2ERKS5_
	nop
	leave
	.cfi_def_cfa 7, 8
	ret
	.cfi_endproc
.LFE8042:
	.size	_ZN5Eigen8internal9evaluatorINS_6MatrixIdLi4ELi1ELi0ELi4ELi1EEEEC2ERKS3_, .-_ZN5Eigen8internal9evaluatorINS_6MatrixIdLi4ELi1ELi0ELi4ELi1EEEEC2ERKS3_
	.weak	_ZN5Eigen8internal9evaluatorINS_6MatrixIdLi4ELi1ELi0ELi4ELi1EEEEC1ERKS3_
	.set	_ZN5Eigen8internal9evaluatorINS_6MatrixIdLi4ELi1ELi0ELi4ELi1EEEEC1ERKS3_,_ZN5Eigen8internal9evaluatorINS_6MatrixIdLi4ELi1ELi0ELi4ELi1EEEEC2ERKS3_
	.section	.text._ZN5Eigen8internal14evaluator_baseINS_6MatrixIdLi4ELi1ELi0ELi4ELi1EEEED2Ev,"axG",@progbits,_ZN5Eigen8internal14evaluator_baseINS_6MatrixIdLi4ELi1ELi0ELi4ELi1EEEED5Ev,comdat
	.align 2
	.weak	_ZN5Eigen8internal14evaluator_baseINS_6MatrixIdLi4ELi1ELi0ELi4ELi1EEEED2Ev
	.type	_ZN5Eigen8internal14evaluator_baseINS_6MatrixIdLi4ELi1ELi0ELi4ELi1EEEED2Ev, @function
_ZN5Eigen8internal14evaluator_baseINS_6MatrixIdLi4ELi1ELi0ELi4ELi1EEEED2Ev:
.LFB8045:
	.cfi_startproc
	endbr64
	pushq	%rbp
	.cfi_def_cfa_offset 16
	.cfi_offset 6, -16
	movq	%rsp, %rbp
	.cfi_def_cfa_register 6
	movq	%rdi, -8(%rbp)
	nop
	popq	%rbp
	.cfi_def_cfa 7, 8
	ret
	.cfi_endproc
.LFE8045:
	.size	_ZN5Eigen8internal14evaluator_baseINS_6MatrixIdLi4ELi1ELi0ELi4ELi1EEEED2Ev, .-_ZN5Eigen8internal14evaluator_baseINS_6MatrixIdLi4ELi1ELi0ELi4ELi1EEEED2Ev
	.weak	_ZN5Eigen8internal14evaluator_baseINS_6MatrixIdLi4ELi1ELi0ELi4ELi1EEEED1Ev
	.set	_ZN5Eigen8internal14evaluator_baseINS_6MatrixIdLi4ELi1ELi0ELi4ELi1EEEED1Ev,_ZN5Eigen8internal14evaluator_baseINS_6MatrixIdLi4ELi1ELi0ELi4ELi1EEEED2Ev
	.section	.text._ZN5Eigen8internal9evaluatorINS_15PlainObjectBaseINS_6MatrixIdLi4ELi1ELi0ELi4ELi1EEEEEE8coeffRefEl,"axG",@progbits,_ZN5Eigen8internal9evaluatorINS_15PlainObjectBaseINS_6MatrixIdLi4ELi1ELi0ELi4ELi1EEEEEE8coeffRefEl,comdat
	.align 2
	.weak	_ZN5Eigen8internal9evaluatorINS_15PlainObjectBaseINS_6MatrixIdLi4ELi1ELi0ELi4ELi1EEEEEE8coeffRefEl
	.type	_ZN5Eigen8internal9evaluatorINS_15PlainObjectBaseINS_6MatrixIdLi4ELi1ELi0ELi4ELi1EEEEEE8coeffRefEl, @function
_ZN5Eigen8internal9evaluatorINS_15PlainObjectBaseINS_6MatrixIdLi4ELi1ELi0ELi4ELi1EEEEEE8coeffRefEl:
.LFB8047:
	.cfi_startproc
	endbr64
	pushq	%rbp
	.cfi_def_cfa_offset 16
	.cfi_offset 6, -16
	movq	%rsp, %rbp
	.cfi_def_cfa_register 6
	movq	%rdi, -8(%rbp)
	movq	%rsi, -16(%rbp)
	movq	-8(%rbp), %rax
	movq	(%rax), %rdx
	movq	-16(%rbp), %rax
	salq	$3, %rax
	addq	%rdx, %rax
	popq	%rbp
	.cfi_def_cfa 7, 8
	ret
	.cfi_endproc
.LFE8047:
	.size	_ZN5Eigen8internal9evaluatorINS_15PlainObjectBaseINS_6MatrixIdLi4ELi1ELi0ELi4ELi1EEEEEE8coeffRefEl, .-_ZN5Eigen8internal9evaluatorINS_15PlainObjectBaseINS_6MatrixIdLi4ELi1ELi0ELi4ELi1EEEEEE8coeffRefEl
	.section	.text._ZN5Eigen9DenseBaseINS_6MatrixIdLi5ELi1ELi0ELi5ELi1EEEEC2Ev,"axG",@progbits,_ZN5Eigen9DenseBaseINS_6MatrixIdLi5ELi1ELi0ELi5ELi1EEEEC5Ev,comdat
	.align 2
	.weak	_ZN5Eigen9DenseBaseINS_6MatrixIdLi5ELi1ELi0ELi5ELi1EEEEC2Ev
	.type	_ZN5Eigen9DenseBaseINS_6MatrixIdLi5ELi1ELi0ELi5ELi1EEEEC2Ev, @function
_ZN5Eigen9DenseBaseINS_6MatrixIdLi5ELi1ELi0ELi5ELi1EEEEC2Ev:
.LFB8051:
	.cfi_startproc
	endbr64
	pushq	%rbp
	.cfi_def_cfa_offset 16
	.cfi_offset 6, -16
	movq	%rsp, %rbp
	.cfi_def_cfa_register 6
	movq	%rdi, -8(%rbp)
	nop
	popq	%rbp
	.cfi_def_cfa 7, 8
	ret
	.cfi_endproc
.LFE8051:
	.size	_ZN5Eigen9DenseBaseINS_6MatrixIdLi5ELi1ELi0ELi5ELi1EEEEC2Ev, .-_ZN5Eigen9DenseBaseINS_6MatrixIdLi5ELi1ELi0ELi5ELi1EEEEC2Ev
	.weak	_ZN5Eigen9DenseBaseINS_6MatrixIdLi5ELi1ELi0ELi5ELi1EEEEC1Ev
	.set	_ZN5Eigen9DenseBaseINS_6MatrixIdLi5ELi1ELi0ELi5ELi1EEEEC1Ev,_ZN5Eigen9DenseBaseINS_6MatrixIdLi5ELi1ELi0ELi5ELi1EEEEC2Ev
	.section	.text._ZN5Eigen12DenseStorageIdLi5ELi5ELi1ELi0EEC2Ev,"axG",@progbits,_ZN5Eigen12DenseStorageIdLi5ELi5ELi1ELi0EEC5Ev,comdat
	.align 2
	.weak	_ZN5Eigen12DenseStorageIdLi5ELi5ELi1ELi0EEC2Ev
	.type	_ZN5Eigen12DenseStorageIdLi5ELi5ELi1ELi0EEC2Ev, @function
_ZN5Eigen12DenseStorageIdLi5ELi5ELi1ELi0EEC2Ev:
.LFB8054:
	.cfi_startproc
	endbr64
	pushq	%rbp
	.cfi_def_cfa_offset 16
	.cfi_offset 6, -16
	movq	%rsp, %rbp
	.cfi_def_cfa_register 6
	subq	$16, %rsp
	movq	%rdi, -8(%rbp)
	movq	-8(%rbp), %rax
	movq	%rax, %rdi
	call	_ZN5Eigen8internal11plain_arrayIdLi5ELi0ELi0EEC1Ev
	nop
	leave
	.cfi_def_cfa 7, 8
	ret
	.cfi_endproc
.LFE8054:
	.size	_ZN5Eigen12DenseStorageIdLi5ELi5ELi1ELi0EEC2Ev, .-_ZN5Eigen12DenseStorageIdLi5ELi5ELi1ELi0EEC2Ev
	.weak	_ZN5Eigen12DenseStorageIdLi5ELi5ELi1ELi0EEC1Ev
	.set	_ZN5Eigen12DenseStorageIdLi5ELi5ELi1ELi0EEC1Ev,_ZN5Eigen12DenseStorageIdLi5ELi5ELi1ELi0EEC2Ev
	.section	.text._ZN5Eigen12DenseStorageIdLi5ELi5ELi1ELi0EE4colsEv,"axG",@progbits,_ZN5Eigen12DenseStorageIdLi5ELi5ELi1ELi0EE4colsEv,comdat
	.weak	_ZN5Eigen12DenseStorageIdLi5ELi5ELi1ELi0EE4colsEv
	.type	_ZN5Eigen12DenseStorageIdLi5ELi5ELi1ELi0EE4colsEv, @function
_ZN5Eigen12DenseStorageIdLi5ELi5ELi1ELi0EE4colsEv:
.LFB8056:
	.cfi_startproc
	endbr64
	pushq	%rbp
	.cfi_def_cfa_offset 16
	.cfi_offset 6, -16
	movq	%rsp, %rbp
	.cfi_def_cfa_register 6
	movl	$1, %eax
	popq	%rbp
	.cfi_def_cfa 7, 8
	ret
	.cfi_endproc
.LFE8056:
	.size	_ZN5Eigen12DenseStorageIdLi5ELi5ELi1ELi0EE4colsEv, .-_ZN5Eigen12DenseStorageIdLi5ELi5ELi1ELi0EE4colsEv
	.section	.text._ZN5Eigen12DenseStorageIdLi5ELi5ELi1ELi0EE4rowsEv,"axG",@progbits,_ZN5Eigen12DenseStorageIdLi5ELi5ELi1ELi0EE4rowsEv,comdat
	.weak	_ZN5Eigen12DenseStorageIdLi5ELi5ELi1ELi0EE4rowsEv
	.type	_ZN5Eigen12DenseStorageIdLi5ELi5ELi1ELi0EE4rowsEv, @function
_ZN5Eigen12DenseStorageIdLi5ELi5ELi1ELi0EE4rowsEv:
.LFB8057:
	.cfi_startproc
	endbr64
	pushq	%rbp
	.cfi_def_cfa_offset 16
	.cfi_offset 6, -16
	movq	%rsp, %rbp
	.cfi_def_cfa_register 6
	movl	$5, %eax
	popq	%rbp
	.cfi_def_cfa 7, 8
	ret
	.cfi_endproc
.LFE8057:
	.size	_ZN5Eigen12DenseStorageIdLi5ELi5ELi1ELi0EE4rowsEv, .-_ZN5Eigen12DenseStorageIdLi5ELi5ELi1ELi0EE4rowsEv
	.section	.text._ZN5Eigen12DenseStorageIdLi5ELi5ELi1ELi0EE4dataEv,"axG",@progbits,_ZN5Eigen12DenseStorageIdLi5ELi5ELi1ELi0EE4dataEv,comdat
	.align 2
	.weak	_ZN5Eigen12DenseStorageIdLi5ELi5ELi1ELi0EE4dataEv
	.type	_ZN5Eigen12DenseStorageIdLi5ELi5ELi1ELi0EE4dataEv, @function
_ZN5Eigen12DenseStorageIdLi5ELi5ELi1ELi0EE4dataEv:
.LFB8058:
	.cfi_startproc
	endbr64
	pushq	%rbp
	.cfi_def_cfa_offset 16
	.cfi_offset 6, -16
	movq	%rsp, %rbp
	.cfi_def_cfa_register 6
	movq	%rdi, -8(%rbp)
	movq	-8(%rbp), %rax
	popq	%rbp
	.cfi_def_cfa 7, 8
	ret
	.cfi_endproc
.LFE8058:
	.size	_ZN5Eigen12DenseStorageIdLi5ELi5ELi1ELi0EE4dataEv, .-_ZN5Eigen12DenseStorageIdLi5ELi5ELi1ELi0EE4dataEv
	.section	.rodata
	.align 8
.LC23:
	.string	"Eigen::internal::plain_array<T, Size, MatrixOrArrayOptions, 16>::plain_array() [with T = double; int Size = 4; int MatrixOrArrayOptions = 0]"
	.align 8
.LC24:
	.string	"/usr/include/eigen3/Eigen/src/Core/DenseStorage.h"
	.align 8
.LC25:
	.string	"(internal::UIntPtr(eigen_unaligned_array_assert_workaround_gcc47(array)) & (15)) == 0 && \"this assertion is explained here: \" \"http://eigen.tuxfamily.org/dox-devel/group__TopicUnalignedArrayAssert.html\" \" **** READ THIS WEB PAGE !!! ****\""
	.section	.text._ZN5Eigen8internal11plain_arrayIdLi4ELi0ELi16EEC2Ev,"axG",@progbits,_ZN5Eigen8internal11plain_arrayIdLi4ELi0ELi16EEC5Ev,comdat
	.align 2
	.weak	_ZN5Eigen8internal11plain_arrayIdLi4ELi0ELi16EEC2Ev
	.type	_ZN5Eigen8internal11plain_arrayIdLi4ELi0ELi16EEC2Ev, @function
_ZN5Eigen8internal11plain_arrayIdLi4ELi0ELi16EEC2Ev:
.LFB8100:
	.cfi_startproc
	endbr64
	pushq	%rbp
	.cfi_def_cfa_offset 16
	.cfi_offset 6, -16
	movq	%rsp, %rbp
	.cfi_def_cfa_register 6
	subq	$32, %rsp
	movq	%rdi, -24(%rbp)
	movq	-24(%rbp), %rax
	movq	%rax, -8(%rbp)
	movq	-8(%rbp), %rax
	andl	$15, %eax
	testq	%rax, %rax
	je	.L147
	leaq	.LC23(%rip), %rax
	movq	%rax, %rcx
	movl	$109, %edx
	leaq	.LC24(%rip), %rax
	movq	%rax, %rsi
	leaq	.LC25(%rip), %rax
	movq	%rax, %rdi
	call	__assert_fail@PLT
.L147:
	nop
	call	_ZN5Eigen8internal28check_static_allocation_sizeIdLi4EEEvv
	nop
	leave
	.cfi_def_cfa 7, 8
	ret
	.cfi_endproc
.LFE8100:
	.size	_ZN5Eigen8internal11plain_arrayIdLi4ELi0ELi16EEC2Ev, .-_ZN5Eigen8internal11plain_arrayIdLi4ELi0ELi16EEC2Ev
	.weak	_ZN5Eigen8internal11plain_arrayIdLi4ELi0ELi16EEC1Ev
	.set	_ZN5Eigen8internal11plain_arrayIdLi4ELi0ELi16EEC1Ev,_ZN5Eigen8internal11plain_arrayIdLi4ELi0ELi16EEC2Ev
	.section	.text._ZN5Eigen8internal9evaluatorINS_15PlainObjectBaseINS_6MatrixIdLi5ELi1ELi0ELi5ELi1EEEEEEC2ERKS5_,"axG",@progbits,_ZN5Eigen8internal9evaluatorINS_15PlainObjectBaseINS_6MatrixIdLi5ELi1ELi0ELi5ELi1EEEEEEC5ERKS5_,comdat
	.align 2
	.weak	_ZN5Eigen8internal9evaluatorINS_15PlainObjectBaseINS_6MatrixIdLi5ELi1ELi0ELi5ELi1EEEEEEC2ERKS5_
	.type	_ZN5Eigen8internal9evaluatorINS_15PlainObjectBaseINS_6MatrixIdLi5ELi1ELi0ELi5ELi1EEEEEEC2ERKS5_, @function
_ZN5Eigen8internal9evaluatorINS_15PlainObjectBaseINS_6MatrixIdLi5ELi1ELi0ELi5ELi1EEEEEEC2ERKS5_:
.LFB8103:
	.cfi_startproc
	.cfi_personality 0x9b,DW.ref.__gxx_personality_v0
	.cfi_lsda 0x1b,.LLSDA8103
	endbr64
	pushq	%rbp
	.cfi_def_cfa_offset 16
	.cfi_offset 6, -16
	movq	%rsp, %rbp
	.cfi_def_cfa_register 6
	pushq	%rbx
	subq	$24, %rsp
	.cfi_offset 3, -24
	movq	%rdi, -24(%rbp)
	movq	%rsi, -32(%rbp)
	movq	-24(%rbp), %rax
	movq	%rax, %rdi
	call	_ZN5Eigen8internal14evaluator_baseINS_6MatrixIdLi5ELi1ELi0ELi5ELi1EEEEC2Ev
	movq	-24(%rbp), %rbx
	movq	-32(%rbp), %rax
	movq	%rax, %rdi
.LEHB3:
	call	_ZNK5Eigen15PlainObjectBaseINS_6MatrixIdLi5ELi1ELi0ELi5ELi1EEEE4dataEv
	movl	$0, %edx
	movq	%rax, %rsi
	movq	%rbx, %rdi
	call	_ZN5Eigen8internal30plainobjectbase_evaluator_dataIdLi0EEC1EPKdl
.LEHE3:
	jmp	.L151
.L150:
	endbr64
	movq	%rax, %rbx
	movq	-24(%rbp), %rax
	movq	%rax, %rdi
	call	_ZN5Eigen8internal14evaluator_baseINS_6MatrixIdLi5ELi1ELi0ELi5ELi1EEEED2Ev
	movq	%rbx, %rax
	movq	%rax, %rdi
.LEHB4:
	call	_Unwind_Resume@PLT
.LEHE4:
.L151:
	movq	-8(%rbp), %rbx
	leave
	.cfi_def_cfa 7, 8
	ret
	.cfi_endproc
.LFE8103:
	.section	.gcc_except_table
.LLSDA8103:
	.byte	0xff
	.byte	0xff
	.byte	0x1
	.uleb128 .LLSDACSE8103-.LLSDACSB8103
.LLSDACSB8103:
	.uleb128 .LEHB3-.LFB8103
	.uleb128 .LEHE3-.LEHB3
	.uleb128 .L150-.LFB8103
	.uleb128 0
	.uleb128 .LEHB4-.LFB8103
	.uleb128 .LEHE4-.LEHB4
	.uleb128 0
	.uleb128 0
.LLSDACSE8103:
	.section	.text._ZN5Eigen8internal9evaluatorINS_15PlainObjectBaseINS_6MatrixIdLi5ELi1ELi0ELi5ELi1EEEEEEC2ERKS5_,"axG",@progbits,_ZN5Eigen8internal9evaluatorINS_15PlainObjectBaseINS_6MatrixIdLi5ELi1ELi0ELi5ELi1EEEEEEC5ERKS5_,comdat
	.size	_ZN5Eigen8internal9evaluatorINS_15PlainObjectBaseINS_6MatrixIdLi5ELi1ELi0ELi5ELi1EEEEEEC2ERKS5_, .-_ZN5Eigen8internal9evaluatorINS_15PlainObjectBaseINS_6MatrixIdLi5ELi1ELi0ELi5ELi1EEEEEEC2ERKS5_
	.weak	_ZN5Eigen8internal9evaluatorINS_15PlainObjectBaseINS_6MatrixIdLi5ELi1ELi0ELi5ELi1EEEEEEC1ERKS5_
	.set	_ZN5Eigen8internal9evaluatorINS_15PlainObjectBaseINS_6MatrixIdLi5ELi1ELi0ELi5ELi1EEEEEEC1ERKS5_,_ZN5Eigen8internal9evaluatorINS_15PlainObjectBaseINS_6MatrixIdLi5ELi1ELi0ELi5ELi1EEEEEEC2ERKS5_
	.section	.text._ZNK5Eigen15PlainObjectBaseINS_6MatrixIdLi4ELi1ELi0ELi4ELi1EEEE4colsEv,"axG",@progbits,_ZNK5Eigen15PlainObjectBaseINS_6MatrixIdLi4ELi1ELi0ELi4ELi1EEEE4colsEv,comdat
	.align 2
	.weak	_ZNK5Eigen15PlainObjectBaseINS_6MatrixIdLi4ELi1ELi0ELi4ELi1EEEE4colsEv
	.type	_ZNK5Eigen15PlainObjectBaseINS_6MatrixIdLi4ELi1ELi0ELi4ELi1EEEE4colsEv, @function
_ZNK5Eigen15PlainObjectBaseINS_6MatrixIdLi4ELi1ELi0ELi4ELi1EEEE4colsEv:
.LFB8105:
	.cfi_startproc
	endbr64
	pushq	%rbp
	.cfi_def_cfa_offset 16
	.cfi_offset 6, -16
	movq	%rsp, %rbp
	.cfi_def_cfa_register 6
	subq	$16, %rsp
	movq	%rdi, -8(%rbp)
	call	_ZN5Eigen12DenseStorageIdLi4ELi4ELi1ELi0EE4colsEv
	leave
	.cfi_def_cfa 7, 8
	ret
	.cfi_endproc
.LFE8105:
	.size	_ZNK5Eigen15PlainObjectBaseINS_6MatrixIdLi4ELi1ELi0ELi4ELi1EEEE4colsEv, .-_ZNK5Eigen15PlainObjectBaseINS_6MatrixIdLi4ELi1ELi0ELi4ELi1EEEE4colsEv
	.section	.text._ZN5Eigen12DenseStorageIdLi4ELi4ELi1ELi0EE4rowsEv,"axG",@progbits,_ZN5Eigen12DenseStorageIdLi4ELi4ELi1ELi0EE4rowsEv,comdat
	.weak	_ZN5Eigen12DenseStorageIdLi4ELi4ELi1ELi0EE4rowsEv
	.type	_ZN5Eigen12DenseStorageIdLi4ELi4ELi1ELi0EE4rowsEv, @function
_ZN5Eigen12DenseStorageIdLi4ELi4ELi1ELi0EE4rowsEv:
.LFB8106:
	.cfi_startproc
	endbr64
	pushq	%rbp
	.cfi_def_cfa_offset 16
	.cfi_offset 6, -16
	movq	%rsp, %rbp
	.cfi_def_cfa_register 6
	movl	$4, %eax
	popq	%rbp
	.cfi_def_cfa 7, 8
	ret
	.cfi_endproc
.LFE8106:
	.size	_ZN5Eigen12DenseStorageIdLi4ELi4ELi1ELi0EE4rowsEv, .-_ZN5Eigen12DenseStorageIdLi4ELi4ELi1ELi0EE4rowsEv
	.section	.text._ZN5Eigen8internal9evaluatorINS_15PlainObjectBaseINS_6MatrixIdLi4ELi1ELi0ELi4ELi1EEEEEEC2ERKS5_,"axG",@progbits,_ZN5Eigen8internal9evaluatorINS_15PlainObjectBaseINS_6MatrixIdLi4ELi1ELi0ELi4ELi1EEEEEEC5ERKS5_,comdat
	.align 2
	.weak	_ZN5Eigen8internal9evaluatorINS_15PlainObjectBaseINS_6MatrixIdLi4ELi1ELi0ELi4ELi1EEEEEEC2ERKS5_
	.type	_ZN5Eigen8internal9evaluatorINS_15PlainObjectBaseINS_6MatrixIdLi4ELi1ELi0ELi4ELi1EEEEEEC2ERKS5_, @function
_ZN5Eigen8internal9evaluatorINS_15PlainObjectBaseINS_6MatrixIdLi4ELi1ELi0ELi4ELi1EEEEEEC2ERKS5_:
.LFB8108:
	.cfi_startproc
	.cfi_personality 0x9b,DW.ref.__gxx_personality_v0
	.cfi_lsda 0x1b,.LLSDA8108
	endbr64
	pushq	%rbp
	.cfi_def_cfa_offset 16
	.cfi_offset 6, -16
	movq	%rsp, %rbp
	.cfi_def_cfa_register 6
	pushq	%rbx
	subq	$24, %rsp
	.cfi_offset 3, -24
	movq	%rdi, -24(%rbp)
	movq	%rsi, -32(%rbp)
	movq	-24(%rbp), %rax
	movq	%rax, %rdi
	call	_ZN5Eigen8internal14evaluator_baseINS_6MatrixIdLi4ELi1ELi0ELi4ELi1EEEEC2Ev
	movq	-24(%rbp), %rbx
	movq	-32(%rbp), %rax
	movq	%rax, %rdi
.LEHB5:
	call	_ZNK5Eigen15PlainObjectBaseINS_6MatrixIdLi4ELi1ELi0ELi4ELi1EEEE4dataEv
	movl	$0, %edx
	movq	%rax, %rsi
	movq	%rbx, %rdi
	call	_ZN5Eigen8internal30plainobjectbase_evaluator_dataIdLi0EEC1EPKdl
.LEHE5:
	jmp	.L159
.L158:
	endbr64
	movq	%rax, %rbx
	movq	-24(%rbp), %rax
	movq	%rax, %rdi
	call	_ZN5Eigen8internal14evaluator_baseINS_6MatrixIdLi4ELi1ELi0ELi4ELi1EEEED2Ev
	movq	%rbx, %rax
	movq	%rax, %rdi
.LEHB6:
	call	_Unwind_Resume@PLT
.LEHE6:
.L159:
	movq	-8(%rbp), %rbx
	leave
	.cfi_def_cfa 7, 8
	ret
	.cfi_endproc
.LFE8108:
	.section	.gcc_except_table
.LLSDA8108:
	.byte	0xff
	.byte	0xff
	.byte	0x1
	.uleb128 .LLSDACSE8108-.LLSDACSB8108
.LLSDACSB8108:
	.uleb128 .LEHB5-.LFB8108
	.uleb128 .LEHE5-.LEHB5
	.uleb128 .L158-.LFB8108
	.uleb128 0
	.uleb128 .LEHB6-.LFB8108
	.uleb128 .LEHE6-.LEHB6
	.uleb128 0
	.uleb128 0
.LLSDACSE8108:
	.section	.text._ZN5Eigen8internal9evaluatorINS_15PlainObjectBaseINS_6MatrixIdLi4ELi1ELi0ELi4ELi1EEEEEEC2ERKS5_,"axG",@progbits,_ZN5Eigen8internal9evaluatorINS_15PlainObjectBaseINS_6MatrixIdLi4ELi1ELi0ELi4ELi1EEEEEEC5ERKS5_,comdat
	.size	_ZN5Eigen8internal9evaluatorINS_15PlainObjectBaseINS_6MatrixIdLi4ELi1ELi0ELi4ELi1EEEEEEC2ERKS5_, .-_ZN5Eigen8internal9evaluatorINS_15PlainObjectBaseINS_6MatrixIdLi4ELi1ELi0ELi4ELi1EEEEEEC2ERKS5_
	.weak	_ZN5Eigen8internal9evaluatorINS_15PlainObjectBaseINS_6MatrixIdLi4ELi1ELi0ELi4ELi1EEEEEEC1ERKS5_
	.set	_ZN5Eigen8internal9evaluatorINS_15PlainObjectBaseINS_6MatrixIdLi4ELi1ELi0ELi4ELi1EEEEEEC1ERKS5_,_ZN5Eigen8internal9evaluatorINS_15PlainObjectBaseINS_6MatrixIdLi4ELi1ELi0ELi4ELi1EEEEEEC2ERKS5_
	.section	.text._ZN5Eigen8internal11plain_arrayIdLi5ELi0ELi0EEC2Ev,"axG",@progbits,_ZN5Eigen8internal11plain_arrayIdLi5ELi0ELi0EEC5Ev,comdat
	.align 2
	.weak	_ZN5Eigen8internal11plain_arrayIdLi5ELi0ELi0EEC2Ev
	.type	_ZN5Eigen8internal11plain_arrayIdLi5ELi0ELi0EEC2Ev, @function
_ZN5Eigen8internal11plain_arrayIdLi5ELi0ELi0EEC2Ev:
.LFB8111:
	.cfi_startproc
	endbr64
	pushq	%rbp
	.cfi_def_cfa_offset 16
	.cfi_offset 6, -16
	movq	%rsp, %rbp
	.cfi_def_cfa_register 6
	subq	$16, %rsp
	movq	%rdi, -8(%rbp)
	call	_ZN5Eigen8internal28check_static_allocation_sizeIdLi5EEEvv
	nop
	leave
	.cfi_def_cfa 7, 8
	ret
	.cfi_endproc
.LFE8111:
	.size	_ZN5Eigen8internal11plain_arrayIdLi5ELi0ELi0EEC2Ev, .-_ZN5Eigen8internal11plain_arrayIdLi5ELi0ELi0EEC2Ev
	.weak	_ZN5Eigen8internal11plain_arrayIdLi5ELi0ELi0EEC1Ev
	.set	_ZN5Eigen8internal11plain_arrayIdLi5ELi0ELi0EEC1Ev,_ZN5Eigen8internal11plain_arrayIdLi5ELi0ELi0EEC2Ev
	.section	.text._ZN5Eigen8internal28check_static_allocation_sizeIdLi4EEEvv,"axG",@progbits,_ZN5Eigen8internal28check_static_allocation_sizeIdLi4EEEvv,comdat
	.weak	_ZN5Eigen8internal28check_static_allocation_sizeIdLi4EEEvv
	.type	_ZN5Eigen8internal28check_static_allocation_sizeIdLi4EEEvv, @function
_ZN5Eigen8internal28check_static_allocation_sizeIdLi4EEEvv:
.LFB8142:
	.cfi_startproc
	endbr64
	pushq	%rbp
	.cfi_def_cfa_offset 16
	.cfi_offset 6, -16
	movq	%rsp, %rbp
	.cfi_def_cfa_register 6
	nop
	popq	%rbp
	.cfi_def_cfa 7, 8
	ret
	.cfi_endproc
.LFE8142:
	.size	_ZN5Eigen8internal28check_static_allocation_sizeIdLi4EEEvv, .-_ZN5Eigen8internal28check_static_allocation_sizeIdLi4EEEvv
	.section	.text._ZNK5Eigen15PlainObjectBaseINS_6MatrixIdLi5ELi1ELi0ELi5ELi1EEEE4dataEv,"axG",@progbits,_ZNK5Eigen15PlainObjectBaseINS_6MatrixIdLi5ELi1ELi0ELi5ELi1EEEE4dataEv,comdat
	.align 2
	.weak	_ZNK5Eigen15PlainObjectBaseINS_6MatrixIdLi5ELi1ELi0ELi5ELi1EEEE4dataEv
	.type	_ZNK5Eigen15PlainObjectBaseINS_6MatrixIdLi5ELi1ELi0ELi5ELi1EEEE4dataEv, @function
_ZNK5Eigen15PlainObjectBaseINS_6MatrixIdLi5ELi1ELi0ELi5ELi1EEEE4dataEv:
.LFB8143:
	.cfi_startproc
	endbr64
	pushq	%rbp
	.cfi_def_cfa_offset 16
	.cfi_offset 6, -16
	movq	%rsp, %rbp
	.cfi_def_cfa_register 6
	subq	$16, %rsp
	movq	%rdi, -8(%rbp)
	movq	-8(%rbp), %rax
	movq	%rax, %rdi
	call	_ZNK5Eigen12DenseStorageIdLi5ELi5ELi1ELi0EE4dataEv
	leave
	.cfi_def_cfa 7, 8
	ret
	.cfi_endproc
.LFE8143:
	.size	_ZNK5Eigen15PlainObjectBaseINS_6MatrixIdLi5ELi1ELi0ELi5ELi1EEEE4dataEv, .-_ZNK5Eigen15PlainObjectBaseINS_6MatrixIdLi5ELi1ELi0ELi5ELi1EEEE4dataEv
	.section	.text._ZN5Eigen8internal14evaluator_baseINS_6MatrixIdLi5ELi1ELi0ELi5ELi1EEEEC2Ev,"axG",@progbits,_ZN5Eigen8internal14evaluator_baseINS_6MatrixIdLi5ELi1ELi0ELi5ELi1EEEEC5Ev,comdat
	.align 2
	.weak	_ZN5Eigen8internal14evaluator_baseINS_6MatrixIdLi5ELi1ELi0ELi5ELi1EEEEC2Ev
	.type	_ZN5Eigen8internal14evaluator_baseINS_6MatrixIdLi5ELi1ELi0ELi5ELi1EEEEC2Ev, @function
_ZN5Eigen8internal14evaluator_baseINS_6MatrixIdLi5ELi1ELi0ELi5ELi1EEEEC2Ev:
.LFB8146:
	.cfi_startproc
	endbr64
	pushq	%rbp
	.cfi_def_cfa_offset 16
	.cfi_offset 6, -16
	movq	%rsp, %rbp
	.cfi_def_cfa_register 6
	movq	%rdi, -8(%rbp)
	nop
	popq	%rbp
	.cfi_def_cfa 7, 8
	ret
	.cfi_endproc
.LFE8146:
	.size	_ZN5Eigen8internal14evaluator_baseINS_6MatrixIdLi5ELi1ELi0ELi5ELi1EEEEC2Ev, .-_ZN5Eigen8internal14evaluator_baseINS_6MatrixIdLi5ELi1ELi0ELi5ELi1EEEEC2Ev
	.weak	_ZN5Eigen8internal14evaluator_baseINS_6MatrixIdLi5ELi1ELi0ELi5ELi1EEEEC1Ev
	.set	_ZN5Eigen8internal14evaluator_baseINS_6MatrixIdLi5ELi1ELi0ELi5ELi1EEEEC1Ev,_ZN5Eigen8internal14evaluator_baseINS_6MatrixIdLi5ELi1ELi0ELi5ELi1EEEEC2Ev
	.section	.text._ZN5Eigen8internal30plainobjectbase_evaluator_dataIdLi0EEC2EPKdl,"axG",@progbits,_ZN5Eigen8internal30plainobjectbase_evaluator_dataIdLi0EEC5EPKdl,comdat
	.align 2
	.weak	_ZN5Eigen8internal30plainobjectbase_evaluator_dataIdLi0EEC2EPKdl
	.type	_ZN5Eigen8internal30plainobjectbase_evaluator_dataIdLi0EEC2EPKdl, @function
_ZN5Eigen8internal30plainobjectbase_evaluator_dataIdLi0EEC2EPKdl:
.LFB8149:
	.cfi_startproc
	endbr64
	pushq	%rbp
	.cfi_def_cfa_offset 16
	.cfi_offset 6, -16
	movq	%rsp, %rbp
	.cfi_def_cfa_register 6
	subq	$32, %rsp
	movq	%rdi, -8(%rbp)
	movq	%rsi, -16(%rbp)
	movq	%rdx, -24(%rbp)
	movq	-8(%rbp), %rax
	movq	-16(%rbp), %rdx
	movq	%rdx, (%rax)
	leaq	-24(%rbp), %rax
	movq	%rax, %rdi
	call	_ZN5Eigen8internal22ignore_unused_variableIlEEvRKT_
	nop
	leave
	.cfi_def_cfa 7, 8
	ret
	.cfi_endproc
.LFE8149:
	.size	_ZN5Eigen8internal30plainobjectbase_evaluator_dataIdLi0EEC2EPKdl, .-_ZN5Eigen8internal30plainobjectbase_evaluator_dataIdLi0EEC2EPKdl
	.weak	_ZN5Eigen8internal30plainobjectbase_evaluator_dataIdLi0EEC1EPKdl
	.set	_ZN5Eigen8internal30plainobjectbase_evaluator_dataIdLi0EEC1EPKdl,_ZN5Eigen8internal30plainobjectbase_evaluator_dataIdLi0EEC2EPKdl
	.section	.text._ZN5Eigen12DenseStorageIdLi4ELi4ELi1ELi0EE4colsEv,"axG",@progbits,_ZN5Eigen12DenseStorageIdLi4ELi4ELi1ELi0EE4colsEv,comdat
	.weak	_ZN5Eigen12DenseStorageIdLi4ELi4ELi1ELi0EE4colsEv
	.type	_ZN5Eigen12DenseStorageIdLi4ELi4ELi1ELi0EE4colsEv, @function
_ZN5Eigen12DenseStorageIdLi4ELi4ELi1ELi0EE4colsEv:
.LFB8151:
	.cfi_startproc
	endbr64
	pushq	%rbp
	.cfi_def_cfa_offset 16
	.cfi_offset 6, -16
	movq	%rsp, %rbp
	.cfi_def_cfa_register 6
	movl	$1, %eax
	popq	%rbp
	.cfi_def_cfa 7, 8
	ret
	.cfi_endproc
.LFE8151:
	.size	_ZN5Eigen12DenseStorageIdLi4ELi4ELi1ELi0EE4colsEv, .-_ZN5Eigen12DenseStorageIdLi4ELi4ELi1ELi0EE4colsEv
	.section	.text._ZNK5Eigen15PlainObjectBaseINS_6MatrixIdLi4ELi1ELi0ELi4ELi1EEEE4dataEv,"axG",@progbits,_ZNK5Eigen15PlainObjectBaseINS_6MatrixIdLi4ELi1ELi0ELi4ELi1EEEE4dataEv,comdat
	.align 2
	.weak	_ZNK5Eigen15PlainObjectBaseINS_6MatrixIdLi4ELi1ELi0ELi4ELi1EEEE4dataEv
	.type	_ZNK5Eigen15PlainObjectBaseINS_6MatrixIdLi4ELi1ELi0ELi4ELi1EEEE4dataEv, @function
_ZNK5Eigen15PlainObjectBaseINS_6MatrixIdLi4ELi1ELi0ELi4ELi1EEEE4dataEv:
.LFB8152:
	.cfi_startproc
	endbr64
	pushq	%rbp
	.cfi_def_cfa_offset 16
	.cfi_offset 6, -16
	movq	%rsp, %rbp
	.cfi_def_cfa_register 6
	subq	$16, %rsp
	movq	%rdi, -8(%rbp)
	movq	-8(%rbp), %rax
	movq	%rax, %rdi
	call	_ZNK5Eigen12DenseStorageIdLi4ELi4ELi1ELi0EE4dataEv
	leave
	.cfi_def_cfa 7, 8
	ret
	.cfi_endproc
.LFE8152:
	.size	_ZNK5Eigen15PlainObjectBaseINS_6MatrixIdLi4ELi1ELi0ELi4ELi1EEEE4dataEv, .-_ZNK5Eigen15PlainObjectBaseINS_6MatrixIdLi4ELi1ELi0ELi4ELi1EEEE4dataEv
	.section	.text._ZN5Eigen8internal14evaluator_baseINS_6MatrixIdLi4ELi1ELi0ELi4ELi1EEEEC2Ev,"axG",@progbits,_ZN5Eigen8internal14evaluator_baseINS_6MatrixIdLi4ELi1ELi0ELi4ELi1EEEEC5Ev,comdat
	.align 2
	.weak	_ZN5Eigen8internal14evaluator_baseINS_6MatrixIdLi4ELi1ELi0ELi4ELi1EEEEC2Ev
	.type	_ZN5Eigen8internal14evaluator_baseINS_6MatrixIdLi4ELi1ELi0ELi4ELi1EEEEC2Ev, @function
_ZN5Eigen8internal14evaluator_baseINS_6MatrixIdLi4ELi1ELi0ELi4ELi1EEEEC2Ev:
.LFB8155:
	.cfi_startproc
	endbr64
	pushq	%rbp
	.cfi_def_cfa_offset 16
	.cfi_offset 6, -16
	movq	%rsp, %rbp
	.cfi_def_cfa_register 6
	movq	%rdi, -8(%rbp)
	nop
	popq	%rbp
	.cfi_def_cfa 7, 8
	ret
	.cfi_endproc
.LFE8155:
	.size	_ZN5Eigen8internal14evaluator_baseINS_6MatrixIdLi4ELi1ELi0ELi4ELi1EEEEC2Ev, .-_ZN5Eigen8internal14evaluator_baseINS_6MatrixIdLi4ELi1ELi0ELi4ELi1EEEEC2Ev
	.weak	_ZN5Eigen8internal14evaluator_baseINS_6MatrixIdLi4ELi1ELi0ELi4ELi1EEEEC1Ev
	.set	_ZN5Eigen8internal14evaluator_baseINS_6MatrixIdLi4ELi1ELi0ELi4ELi1EEEEC1Ev,_ZN5Eigen8internal14evaluator_baseINS_6MatrixIdLi4ELi1ELi0ELi4ELi1EEEEC2Ev
	.section	.text._ZN5Eigen8internal28check_static_allocation_sizeIdLi5EEEvv,"axG",@progbits,_ZN5Eigen8internal28check_static_allocation_sizeIdLi5EEEvv,comdat
	.weak	_ZN5Eigen8internal28check_static_allocation_sizeIdLi5EEEvv
	.type	_ZN5Eigen8internal28check_static_allocation_sizeIdLi5EEEvv, @function
_ZN5Eigen8internal28check_static_allocation_sizeIdLi5EEEvv:
.LFB8157:
	.cfi_startproc
	endbr64
	pushq	%rbp
	.cfi_def_cfa_offset 16
	.cfi_offset 6, -16
	movq	%rsp, %rbp
	.cfi_def_cfa_register 6
	nop
	popq	%rbp
	.cfi_def_cfa 7, 8
	ret
	.cfi_endproc
.LFE8157:
	.size	_ZN5Eigen8internal28check_static_allocation_sizeIdLi5EEEvv, .-_ZN5Eigen8internal28check_static_allocation_sizeIdLi5EEEvv
	.section	.text._ZNK5Eigen12DenseStorageIdLi5ELi5ELi1ELi0EE4dataEv,"axG",@progbits,_ZNK5Eigen12DenseStorageIdLi5ELi5ELi1ELi0EE4dataEv,comdat
	.align 2
	.weak	_ZNK5Eigen12DenseStorageIdLi5ELi5ELi1ELi0EE4dataEv
	.type	_ZNK5Eigen12DenseStorageIdLi5ELi5ELi1ELi0EE4dataEv, @function
_ZNK5Eigen12DenseStorageIdLi5ELi5ELi1ELi0EE4dataEv:
.LFB8181:
	.cfi_startproc
	endbr64
	pushq	%rbp
	.cfi_def_cfa_offset 16
	.cfi_offset 6, -16
	movq	%rsp, %rbp
	.cfi_def_cfa_register 6
	movq	%rdi, -8(%rbp)
	movq	-8(%rbp), %rax
	popq	%rbp
	.cfi_def_cfa 7, 8
	ret
	.cfi_endproc
.LFE8181:
	.size	_ZNK5Eigen12DenseStorageIdLi5ELi5ELi1ELi0EE4dataEv, .-_ZNK5Eigen12DenseStorageIdLi5ELi5ELi1ELi0EE4dataEv
	.section	.text._ZN5Eigen8internal22ignore_unused_variableIlEEvRKT_,"axG",@progbits,_ZN5Eigen8internal22ignore_unused_variableIlEEvRKT_,comdat
	.weak	_ZN5Eigen8internal22ignore_unused_variableIlEEvRKT_
	.type	_ZN5Eigen8internal22ignore_unused_variableIlEEvRKT_, @function
_ZN5Eigen8internal22ignore_unused_variableIlEEvRKT_:
.LFB8183:
	.cfi_startproc
	endbr64
	pushq	%rbp
	.cfi_def_cfa_offset 16
	.cfi_offset 6, -16
	movq	%rsp, %rbp
	.cfi_def_cfa_register 6
	movq	%rdi, -8(%rbp)
	nop
	popq	%rbp
	.cfi_def_cfa 7, 8
	ret
	.cfi_endproc
.LFE8183:
	.size	_ZN5Eigen8internal22ignore_unused_variableIlEEvRKT_, .-_ZN5Eigen8internal22ignore_unused_variableIlEEvRKT_
	.section	.text._ZNK5Eigen12DenseStorageIdLi4ELi4ELi1ELi0EE4dataEv,"axG",@progbits,_ZNK5Eigen12DenseStorageIdLi4ELi4ELi1ELi0EE4dataEv,comdat
	.align 2
	.weak	_ZNK5Eigen12DenseStorageIdLi4ELi4ELi1ELi0EE4dataEv
	.type	_ZNK5Eigen12DenseStorageIdLi4ELi4ELi1ELi0EE4dataEv, @function
_ZNK5Eigen12DenseStorageIdLi4ELi4ELi1ELi0EE4dataEv:
.LFB8184:
	.cfi_startproc
	endbr64
	pushq	%rbp
	.cfi_def_cfa_offset 16
	.cfi_offset 6, -16
	movq	%rsp, %rbp
	.cfi_def_cfa_register 6
	movq	%rdi, -8(%rbp)
	movq	-8(%rbp), %rax
	popq	%rbp
	.cfi_def_cfa 7, 8
	ret
	.cfi_endproc
.LFE8184:
	.size	_ZNK5Eigen12DenseStorageIdLi4ELi4ELi1ELi0EE4dataEv, .-_ZNK5Eigen12DenseStorageIdLi4ELi4ELi1ELi0EE4dataEv
	.local	_ZN5EigenL3fixILi1EEE
	.comm	_ZN5EigenL3fixILi1EEE,1,1
	.text
	.type	_Z41__static_initialization_and_destruction_0ii, @function
_Z41__static_initialization_and_destruction_0ii:
.LFB8201:
	.cfi_startproc
	endbr64
	pushq	%rbp
	.cfi_def_cfa_offset 16
	.cfi_offset 6, -16
	movq	%rsp, %rbp
	.cfi_def_cfa_register 6
	subq	$16, %rsp
	movl	%edi, -4(%rbp)
	movl	%esi, -8(%rbp)
	cmpl	$1, -4(%rbp)
	jne	.L179
	cmpl	$65535, -8(%rbp)
	jne	.L179
	leaq	_ZStL8__ioinit(%rip), %rax
	movq	%rax, %rdi
	call	_ZNSt8ios_base4InitC1Ev@PLT
	leaq	__dso_handle(%rip), %rax
	movq	%rax, %rdx
	leaq	_ZStL8__ioinit(%rip), %rax
	movq	%rax, %rsi
	movq	_ZNSt8ios_base4InitD1Ev@GOTPCREL(%rip), %rax
	movq	%rax, %rdi
	call	__cxa_atexit@PLT
	leaq	_ZN5EigenL4lastE(%rip), %rax
	movq	%rax, %rdi
	call	_ZN5Eigen8symbolic10SymbolExprINS_8internal17symbolic_last_tagEEC1Ev
	leaq	_ZN5EigenL3fixILi1EEE(%rip), %rax
	movq	%rax, %rdi
	call	_ZN5Eigen8internal8FixedIntILi1EEC1Ev
	leaq	_ZN5EigenL3fixILi1EEE(%rip), %rax
	movq	%rax, %rdi
	call	_ZNK5Eigen8internal8FixedIntILi1EEclEv
	leaq	_ZN5EigenL4lastE(%rip), %rax
	movq	%rax, %rdi
	call	_ZNK5Eigen8symbolic8BaseExprINS0_10SymbolExprINS_8internal17symbolic_last_tagEEEEplILi1EEENS0_7AddExprIS5_NS0_9ValueExprINS3_8FixedIntIXT_EEEEEEESB_
	leaq	_ZN5EigenL3allE(%rip), %rax
	movq	%rax, %rdi
	call	_ZN5Eigen8internal5all_tC1Ev
.L179:
	nop
	leave
	.cfi_def_cfa 7, 8
	ret
	.cfi_endproc
.LFE8201:
	.size	_Z41__static_initialization_and_destruction_0ii, .-_Z41__static_initialization_and_destruction_0ii
	.type	_GLOBAL__sub_I__Z14calc_dw_windowN5Eigen6MatrixIdLi5ELi1ELi0ELi5ELi1EEER6Config, @function
_GLOBAL__sub_I__Z14calc_dw_windowN5Eigen6MatrixIdLi5ELi1ELi0ELi5ELi1EEER6Config:
.LFB8202:
	.cfi_startproc
	endbr64
	pushq	%rbp
	.cfi_def_cfa_offset 16
	.cfi_offset 6, -16
	movq	%rsp, %rbp
	.cfi_def_cfa_register 6
	movl	$65535, %esi
	movl	$1, %edi
	call	_Z41__static_initialization_and_destruction_0ii
	popq	%rbp
	.cfi_def_cfa 7, 8
	ret
	.cfi_endproc
.LFE8202:
	.size	_GLOBAL__sub_I__Z14calc_dw_windowN5Eigen6MatrixIdLi5ELi1ELi0ELi5ELi1EEER6Config, .-_GLOBAL__sub_I__Z14calc_dw_windowN5Eigen6MatrixIdLi5ELi1ELi0ELi5ELi1EEER6Config
	.section	.init_array,"aw"
	.align 8
	.quad	_GLOBAL__sub_I__Z14calc_dw_windowN5Eigen6MatrixIdLi5ELi1ELi0ELi5ELi1EEER6Config
	.section	.rodata
	.align 8
.LC0:
	.long	0
	.long	1073217536
	.align 8
.LC2:
	.long	-1717986918
	.long	1070176665
	.align 8
.LC3:
	.long	-1717986918
	.long	-1077306983
	.align 8
.LC4:
	.long	1256670343
	.long	1072060184
	.align 8
.LC5:
	.long	1256670343
	.long	-1075423464
	.align 8
.LC6:
	.long	-1717986918
	.long	1068079513
	.align 8
.LC7:
	.long	0
	.long	1074266112
	.align 8
.LC8:
	.long	0
	.long	1071644672
	.align 8
.LC9:
	.long	1413754136
	.long	1072243195
	.hidden	DW.ref.__gxx_personality_v0
	.weak	DW.ref.__gxx_personality_v0
	.section	.data.rel.local.DW.ref.__gxx_personality_v0,"awG",@progbits,DW.ref.__gxx_personality_v0,comdat
	.align 8
	.type	DW.ref.__gxx_personality_v0, @object
	.size	DW.ref.__gxx_personality_v0, 8
DW.ref.__gxx_personality_v0:
	.quad	__gxx_personality_v0
	.hidden	__dso_handle
	.ident	"GCC: (Ubuntu 11.4.0-1ubuntu1~22.04.2) 11.4.0"
	.section	.note.GNU-stack,"",@progbits
	.section	.note.gnu.property,"a"
	.align 8
	.long	1f - 0f
	.long	4f - 1f
	.long	5
0:
	.string	"GNU"
1:
	.align 8
	.long	0xc0000002
	.long	3f - 2f
2:
	.long	0x3
3:
	.align 8
4:
